Certificate:
    Data:
        Version: 3 (0x2)
        Serial Number: 4098 (0x1002)
        Signature Algorithm: sha256WithRSAEncryption
        Issuer: C=US, ST=CO, L=Denver, O=SigningCA_1, OU=CA_Intermediate_SigningCA_2, CN=Intermediate
        Validity
            Not Before: Dec 11 21:48:48 2024 GMT
            Not After : Dec 21 21:48:48 2025 GMT
        Subject: CN=IDENTITY_1, ST=CO, C=US
        Subject Public Key Info:
            Public Key Algorithm: rsaEncryption
                Public-Key: (2048 bit)
                Modulus:
                    00:bf:ae:d3:0a:2b:57:ad:c3:af:0c:12:bc:f5:ca:
                    a3:40:01:3a:13:e1:51:26:01:bf:3d:c6:e2:a2:2b:
                    1d:11:2c:b5:da:58:61:ce:58:f9:d6:64:38:26:87:
                    8f:5a:56:a5:93:4a:63:5e:e4:b6:2e:58:e5:b6:c4:
                    31:e1:e7:3b:df:66:87:fa:5a:48:be:4b:d2:c8:d7:
                    8f:fc:e6:69:58:89:20:d7:29:6e:43:4b:9b:28:38:
                    1e:ae:e0:45:e7:ba:08:a2:97:f3:e7:9f:8f:ec:d0:
                    58:b8:fa:d6:19:9a:a2:bc:cc:77:1c:ed:f4:84:e3:
                    ff:d6:03:3e:8a:90:89:34:59:cb:aa:cf:e3:22:5b:
                    6c:d2:44:52:9d:9c:12:7f:86:1e:c1:23:c5:ad:29:
                    4c:29:f2:6f:84:07:9d:0f:82:a1:3e:3f:9e:4d:38:
                    8d:05:cc:99:2c:57:9c:dd:a8:b0:b1:67:2e:3e:3c:
                    2e:10:8b:c2:4b:fb:88:65:66:41:52:03:1c:fe:b5:
                    85:9e:5b:8b:62:be:79:c7:5c:d4:63:f8:69:d1:8c:
                    a6:43:4e:ce:09:17:be:18:8d:96:d8:dc:73:2f:cf:
                    c8:27:ba:9d:9a:d6:b7:af:c9:8b:00:ae:6e:62:a5:
                    49:cd:07:53:77:27:39:4c:4e:42:76:9f:a5:2c:bd:
                    c9:dd
                Exponent: 65537 (0x10001)
        X509v3 extensions:
            X509v3 Subject Key Identifier: 
                D4:14:98:75:54:E4:24:DC:4A:C0:23:0E:D0:E6:76:4E:BE:84:35:74
            X509v3 Authority Key Identifier: 
                CD:E3:04:0F:5C:7E:B4:C7:7D:1A:79:9E:C2:9E:65:E5:CC:B9:87:F3
    Signature Algorithm: sha256WithRSAEncryption
    Signature Value:
        00:1c:c4:4b:34:9f:37:ed:c2:fe:3e:e4:99:b9:bb:eb:0e:dd:
        08:6c:ff:ac:9a:ff:5c:85:2e:4b:03:0a:cb:de:5c:cc:ad:33:
        75:56:5e:4f:2c:26:20:2a:f2:43:93:e2:64:89:4b:98:d7:13:
        93:60:c4:c4:6c:ad:6b:d8:72:c8:67:c9:0f:67:c7:bb:68:e7:
        91:55:69:9d:aa:82:2a:fd:ea:5f:99:86:2b:5c:68:e3:40:2f:
        6f:39:61:b2:cc:5e:f4:fb:03:39:74:04:22:5f:07:7c:1b:53:
        b7:e2:0a:1c:da:96:93:1c:ad:cd:03:71:bc:bc:c1:ae:26:d3:
        85:4e:8d:82:28:4a:00:5f:86:1c:b6:aa:d9:bc:60:ae:4b:47:
        20:7e:66:70:14:76:73:86:03:a2:1d:45:2e:e9:01:b1:60:20:
        86:89:19:b8:5c:7c:40:ba:4a:c9:7e:5f:59:48:6d:75:94:0a:
        ef:d2:6f:19:74:c0:b9:5f:a7:fe:b6:6f:d8:e2:c0:43:1b:0e:
        99:cc:6b:37:4e:3d:eb:ff:74:dc:c4:53:cb:56:60:a6:47:1d:
        8e:df:03:94:22:59:4f:00:ee:e5:25:82:a7:c7:77:ff:4e:17:
        4b:3a:48:ba:8d:25:c1:c5:14:fb:16:4d:57:db:42:80:7b:47:
        a7:b8:9b:7f:f9:47:82:05:46:2c:b0:6c:c4:ae:59:0f:80:cc:
        93:73:a2:eb:f5:c3:8d:37:88:91:ed:7c:56:6a:97:9b:32:cf:
        4d:0f:eb:a4:bc:a8:be:7c:bb:e4:18:3e:19:ce:a0:92:08:f9:
        24:29:2b:3f:93:be:58:6f:3e:7b:42:55:42:5b:f1:4c:20:6c:
        c2:49:f7:08:45:d9:c6:1f:8d:22:ae:29:d1:1b:f5:11:12:0c:
        1d:88:76:f0:6d:7c:b0:50:55:40:f1:fd:30:ea:22:46:b3:3b:
        73:b1:72:12:84:c4:4b:1c:03:9f:d1:d2:49:4d:c5:a5:69:90:
        de:9c:39:c8:f7:d8:ab:a9:60:00:d6:27:2e:1b:f6:ba:0c:b5:
        aa:c2:03:46:b2:b4:64:20:5a:64:e6:e5:95:d0:b3:c3:2c:63:
        e9:37:4d:ff:79:d8:12:80:8b:e2:1c:3b:3d:f2:f6:f3:40:d6:
        7c:9a:42:05:25:d7:10:44:b8:f2:fe:6c:f5:55:40:2e:a5:21:
        63:11:3b:18:ff:c4:03:02:fd:b4:c7:49:28:f3:24:a4:bc:61:
        0c:88:c0:54:96:59:b3:34:56:60:6c:71:75:5a:1e:0b:b9:db:
        38:53:f1:a9:77:16:62:11:12:5b:47:85:b6:19:96:6f:96:54:
        14:8d:19:9b:ae:bb:ad:49
-----BEGIN CERTIFICATE-----
MIIEazCCAlOgAwIBAgICEAIwDQYJKoZIhvcNAQELBQAwfjELMAkGA1UEBhMCVVMx
CzAJBgNVBAgMAkNPMQ8wDQYDVQQHDAZEZW52ZXIxFDASBgNVBAoMC1NpZ25pbmdD
QV8xMSQwIgYDVQQLDBtDQV9JbnRlcm1lZGlhdGVfU2lnbmluZ0NBXzIxFTATBgNV
BAMMDEludGVybWVkaWF0ZTAeFw0yNDEyMTEyMTQ4NDhaFw0yNTEyMjEyMTQ4NDha
MC8xEzARBgNVBAMMCklERU5USVRZXzExCzAJBgNVBAgMAkNPMQswCQYDVQQGEwJV
UzCCASIwDQYJKoZIhvcNAQEBBQADggEPADCCAQoCggEBAL+u0worV63DrwwSvPXK
o0ABOhPhUSYBvz3G4qIrHREstdpYYc5Y+dZkOCaHj1pWpZNKY17kti5Y5bbEMeHn
O99mh/paSL5L0sjXj/zmaViJINcpbkNLmyg4Hq7gRee6CKKX8+efj+zQWLj61hma
orzMdxzt9ITj/9YDPoqQiTRZy6rP4yJbbNJEUp2cEn+GHsEjxa0pTCnyb4QHnQ+C
oT4/nk04jQXMmSxXnN2osLFnLj48LhCLwkv7iGVmQVIDHP61hZ5bi2K+ecdc1GP4
adGMpkNOzgkXvhiNltjccy/PyCe6nZrWt6/JiwCubmKlSc0HU3cnOUxOQnafpSy9
yd0CAwEAAaNCMEAwHQYDVR0OBBYEFNQUmHVU5CTcSsAjDtDmdk6+hDV0MB8GA1Ud
IwQYMBaAFM3jBA9cfrTHfRp5nsKeZeXMuYfzMA0GCSqGSIb3DQEBCwUAA4ICAQAA
HMRLNJ837cL+PuSZubvrDt0IbP+smv9chS5LAwrL3lzMrTN1Vl5PLCYgKvJDk+Jk
iUuY1xOTYMTEbK1r2HLIZ8kPZ8e7aOeRVWmdqoIq/epfmYYrXGjjQC9vOWGyzF70
+wM5dAQiXwd8G1O34goc2paTHK3NA3G8vMGuJtOFTo2CKEoAX4YctqrZvGCuS0cg
fmZwFHZzhgOiHUUu6QGxYCCGiRm4XHxAukrJfl9ZSG11lArv0m8ZdMC5X6f+tm/Y
4sBDGw6ZzGs3Tj3r/3TcxFPLVmCmRx2O3wOUIllPAO7lJYKnx3f/ThdLOki6jSXB
xRT7Fk1X20KAe0enuJt/+UeCBUYssGzErlkPgMyTc6Lr9cONN4iR7XxWapebMs9N
D+ukvKi+fLvkGD4ZzqCSCPkkKSs/k75Ybz57QlVCW/FMIGzCSfcIRdnGH40irinR
G/UREgwdiHbwbXywUFVA8f0w6iJGsztzsXIShMRLHAOf0dJJTcWlaZDenDnI99ir
qWAA1icuG/a6DLWqwgNGsrRkIFpk5uWV0LPDLGPpN03/edgSgIviHDs98vbzQNZ8
mkIFJdcQRLjy/mz1VUAupSFjETsY/8QDAv20x0ko8ySkvGEMiMBUllmzNFZgbHF1
Wh4Luds4U/GpdxZiERJbR4W2GZZvllQUjRmbrrutSQ==
-----END CERTIFICATE-----
