Certificate:
    Data:
        Version: 3 (0x2)
        Serial Number: 4099 (0x1003)
        Signature Algorithm: sha256WithRSAEncryption
        Issuer: C=US, ST=CO, L=Denver, O=SigningCA_1, OU=CA_Intermediate_SigningCA_2, CN=Intermediate
        Validity
            Not Before: Dec 11 21:56:24 2024 GMT
            Not After : Dec 21 21:56:24 2025 GMT
        Subject: CN=IDENTITY_2, ST=CO, C=US
        Subject Public Key Info:
            Public Key Algorithm: rsaEncryption
                Public-Key: (2048 bit)
                Modulus:
                    00:b6:71:da:f9:7f:c9:22:35:fe:8e:2e:df:6e:2d:
                    8e:1d:b6:96:78:f0:2a:54:b3:ba:b4:3b:52:d8:7c:
                    8d:c2:53:bb:60:c3:4e:7a:4c:29:ca:da:62:0d:0e:
                    4b:92:16:2f:e4:33:fc:07:52:42:04:63:8c:5f:37:
                    80:5d:83:ca:5f:95:a2:df:6d:62:c7:97:f5:c8:9e:
                    a9:f3:03:a7:ec:8b:d2:ee:d1:3a:b7:cc:cb:ac:31:
                    f8:5f:39:53:d6:a8:a7:0a:07:3d:f5:9d:4a:54:9f:
                    7a:87:b0:26:a4:40:d1:26:21:d3:62:24:03:55:b8:
                    1c:97:57:ce:dd:7a:3d:00:a2:7b:72:23:24:09:c4:
                    d2:8f:22:86:9c:0a:5e:1a:dc:20:28:fc:70:ec:dd:
                    f6:92:47:3f:b0:c5:36:50:dc:60:89:51:73:d0:99:
                    60:77:df:8c:04:3d:66:eb:32:cc:40:ce:5d:d0:fd:
                    08:85:79:e4:37:c5:49:52:4c:8d:7f:d9:cf:fd:9e:
                    17:dd:70:09:ab:a5:cd:63:55:aa:dc:1c:9c:33:64:
                    1a:ee:24:7d:3a:f6:c4:84:0a:e6:c1:43:fa:a8:df:
                    53:84:c4:01:97:29:45:95:5d:f0:7a:cd:07:b2:bb:
                    a7:0e:4a:f2:bf:d6:94:36:f9:06:ba:3a:1c:40:e7:
                    9a:79
                Exponent: 65537 (0x10001)
        X509v3 extensions:
            X509v3 Subject Key Identifier: 
                F0:71:62:A2:F4:96:AC:48:18:2B:44:42:A6:9E:7C:B8:B9:83:A9:4C
            X509v3 Authority Key Identifier: 
                CD:E3:04:0F:5C:7E:B4:C7:7D:1A:79:9E:C2:9E:65:E5:CC:B9:87:F3
    Signature Algorithm: sha256WithRSAEncryption
    Signature Value:
        49:a1:fa:de:42:84:b7:7b:13:8e:c9:0a:51:18:0a:28:27:7f:
        97:44:8b:1c:39:68:6d:46:ff:1c:39:09:94:4a:e5:85:c0:06:
        56:35:b6:6b:5b:07:b2:bb:5b:61:a7:e6:03:b5:89:03:b9:81:
        18:f8:7d:ab:e8:a6:09:34:d9:92:ca:fa:7e:cf:df:8b:d4:d5:
        0d:28:31:07:19:02:6c:b1:d8:22:8f:15:0f:15:4f:77:fb:1c:
        33:1e:4a:ed:bf:c6:15:68:a8:cf:a4:24:ed:43:af:ff:98:38:
        df:33:9d:2b:a4:f8:25:e7:49:82:a2:3c:bc:00:0b:60:4c:ba:
        b4:0c:35:3d:09:eb:0d:a5:7b:ed:3d:02:0a:81:c5:85:58:bd:
        e7:99:93:eb:69:dd:b6:c9:ba:25:7d:90:83:0c:fc:b3:0a:1c:
        80:8b:8d:e2:ef:17:85:01:b3:cd:e3:ea:50:d6:18:cf:64:a9:
        a9:ed:4c:ad:48:18:2d:cd:cb:8e:a4:0f:4d:e6:bf:8b:4d:86:
        e0:ae:c5:bc:69:d8:6a:08:63:c9:3c:c6:f8:1c:64:e3:35:60:
        a0:15:49:25:41:3a:05:d7:da:f2:fa:5d:02:24:3a:0d:b8:88:
        db:a3:ed:19:4c:92:f8:ab:04:93:2e:80:41:ff:b0:16:1f:28:
        ec:a9:02:96:61:9f:c5:87:f0:9f:32:92:ed:50:8f:dc:55:2f:
        8c:77:7a:14:ea:67:b5:72:5c:01:63:53:47:3a:45:43:d9:24:
        bc:3b:19:f8:0a:32:b6:89:27:b3:6a:e8:d5:f4:73:16:c8:3e:
        7d:ab:8b:57:3c:55:2b:af:25:2a:59:93:e7:aa:8c:e5:49:5b:
        bd:22:cc:53:5e:ff:02:b2:89:58:36:51:89:4a:77:80:89:30:
        6d:f4:bb:3b:b9:62:16:c9:ca:69:98:d0:b2:71:7f:6e:0e:c3:
        0f:82:68:65:08:9f:c5:af:bc:df:5b:b1:31:bb:d0:5d:97:dd:
        5a:c0:1d:cc:7a:9e:04:70:f7:ab:63:d4:a4:52:3b:f3:e9:85:
        4a:af:a0:88:5c:2b:e9:6a:3d:5d:92:f9:aa:ab:a3:7c:32:9b:
        6e:b4:9e:1e:9c:96:47:c6:5e:9d:f7:c1:b1:28:5a:2d:79:95:
        cf:5d:03:21:3b:0d:68:30:b4:62:1d:3d:bb:7b:fb:69:0a:83:
        3e:5f:f3:c9:0b:f5:3a:49:e9:0e:b5:e4:97:aa:b2:96:8b:96:
        d0:d6:f2:68:4e:98:c7:c2:dc:f7:26:59:3e:62:7d:ec:52:a0:
        a4:6f:3f:da:d6:91:5d:ec:ac:04:34:b0:f3:cc:78:1d:dc:6b:
        30:7f:1f:72:87:92:4b:21
-----BEGIN CERTIFICATE-----
MIIEazCCAlOgAwIBAgICEAMwDQYJKoZIhvcNAQELBQAwfjELMAkGA1UEBhMCVVMx
CzAJBgNVBAgMAkNPMQ8wDQYDVQQHDAZEZW52ZXIxFDASBgNVBAoMC1NpZ25pbmdD
QV8xMSQwIgYDVQQLDBtDQV9JbnRlcm1lZGlhdGVfU2lnbmluZ0NBXzIxFTATBgNV
BAMMDEludGVybWVkaWF0ZTAeFw0yNDEyMTEyMTU2MjRaFw0yNTEyMjEyMTU2MjRa
MC8xEzARBgNVBAMMCklERU5USVRZXzIxCzAJBgNVBAgMAkNPMQswCQYDVQQGEwJV
UzCCASIwDQYJKoZIhvcNAQEBBQADggEPADCCAQoCggEBALZx2vl/ySI1/o4u324t
jh22lnjwKlSzurQ7Uth8jcJTu2DDTnpMKcraYg0OS5IWL+Qz/AdSQgRjjF83gF2D
yl+Vot9tYseX9cieqfMDp+yL0u7ROrfMy6wx+F85U9aopwoHPfWdSlSfeoewJqRA
0SYh02IkA1W4HJdXzt16PQCie3IjJAnE0o8ihpwKXhrcICj8cOzd9pJHP7DFNlDc
YIlRc9CZYHffjAQ9ZusyzEDOXdD9CIV55DfFSVJMjX/Zz/2eF91wCaulzWNVqtwc
nDNkGu4kfTr2xIQK5sFD+qjfU4TEAZcpRZVd8HrNB7K7pw5K8r/WlDb5Bro6HEDn
mnkCAwEAAaNCMEAwHQYDVR0OBBYEFPBxYqL0lqxIGCtEQqaefLi5g6lMMB8GA1Ud
IwQYMBaAFM3jBA9cfrTHfRp5nsKeZeXMuYfzMA0GCSqGSIb3DQEBCwUAA4ICAQBJ
ofreQoS3exOOyQpRGAooJ3+XRIscOWhtRv8cOQmUSuWFwAZWNbZrWweyu1thp+YD
tYkDuYEY+H2r6KYJNNmSyvp+z9+L1NUNKDEHGQJssdgijxUPFU93+xwzHkrtv8YV
aKjPpCTtQ6//mDjfM50rpPgl50mCojy8AAtgTLq0DDU9CesNpXvtPQIKgcWFWL3n
mZPrad22ybolfZCDDPyzChyAi43i7xeFAbPN4+pQ1hjPZKmp7UytSBgtzcuOpA9N
5r+LTYbgrsW8adhqCGPJPMb4HGTjNWCgFUklQToF19ry+l0CJDoNuIjbo+0ZTJL4
qwSTLoBB/7AWHyjsqQKWYZ/Fh/CfMpLtUI/cVS+Md3oU6me1clwBY1NHOkVD2SS8
Oxn4CjK2iSezaujV9HMWyD59q4tXPFUrryUqWZPnqozlSVu9IsxTXv8CsolYNlGJ
SneAiTBt9Ls7uWIWycppmNCycX9uDsMPgmhlCJ/Fr7zfW7Exu9Bdl91awB3Mep4E
cPerY9SkUjvz6YVKr6CIXCvpaj1dkvmqq6N8MptutJ4enJZHxl6d98GxKFoteZXP
XQMhOw1oMLRiHT27e/tpCoM+X/PJC/U6SekOteSXqrKWi5bQ1vJoTpjHwtz3Jlk+
Yn3sUqCkbz/a1pFd7KwENLDzzHgd3Gswfx9yh5JLIQ==
-----END CERTIFICATE-----
