Certificate:
    Data:
        Version: 3 (0x2)
        Serial Number: 4100 (0x1004)
        Signature Algorithm: sha256WithRSAEncryption
        Issuer: C=US, ST=CO, L=Denver, O=SigningCA_1, OU=CA_Intermediate_SigningCA_2, CN=Intermediate
        Validity
            Not Before: Dec 11 21:56:25 2024 GMT
            Not After : Dec 21 21:56:25 2025 GMT
        Subject: CN=IDENTITY_3, ST=CO, C=US
        Subject Public Key Info:
            Public Key Algorithm: rsaEncryption
                Public-Key: (2048 bit)
                Modulus:
                    00:d5:7e:83:7b:9b:8a:c8:e7:0e:d5:19:9a:14:1b:
                    50:5e:1e:f8:f6:bc:35:4b:5e:83:39:09:99:a0:b3:
                    d2:fc:ad:ac:48:5b:bb:c4:eb:f8:c8:31:6c:1a:d9:
                    79:c8:cd:0f:03:ef:19:19:c8:38:38:51:34:f1:a2:
                    ef:21:f4:d7:9a:be:a3:0f:cc:45:5e:ba:e9:00:34:
                    17:b9:4f:bf:fe:e8:24:7a:5d:9e:ce:e9:ad:e9:69:
                    51:f2:0f:06:70:44:77:e4:38:f3:36:52:0a:bc:8c:
                    6a:bc:7e:a6:ab:f9:aa:f7:17:ed:31:69:4d:35:c0:
                    9a:a1:ae:85:de:82:fb:f8:0d:29:a0:68:eb:ae:f6:
                    bc:39:e5:ac:dd:d6:39:ad:ff:d7:c3:7b:e4:34:c6:
                    de:b4:0b:d8:12:6a:06:fa:35:a9:1e:6a:8b:b5:77:
                    a6:c7:13:50:3f:30:39:ad:ec:7e:88:1f:35:2f:50:
                    37:32:7e:71:58:b0:0e:0c:44:88:63:ef:b4:bc:2c:
                    0a:65:b6:73:cc:32:4d:27:0b:0d:13:8e:1d:00:47:
                    9e:38:31:46:20:50:bd:09:67:d3:03:b2:12:6a:2a:
                    ad:07:90:20:4e:48:2a:e6:c2:5e:ba:73:d9:88:d2:
                    73:58:66:b3:1a:40:21:57:9b:7c:3f:3b:96:4b:e9:
                    c0:f5
                Exponent: 65537 (0x10001)
        X509v3 extensions:
            X509v3 Subject Key Identifier: 
                6A:97:7D:F6:13:30:32:05:B0:57:2D:91:B2:1F:35:AB:2B:C6:79:70
            X509v3 Authority Key Identifier: 
                CD:E3:04:0F:5C:7E:B4:C7:7D:1A:79:9E:C2:9E:65:E5:CC:B9:87:F3
    Signature Algorithm: sha256WithRSAEncryption
    Signature Value:
        37:5a:98:b2:ec:dd:d8:11:16:2c:c7:74:cc:fa:ce:94:21:9f:
        c0:4e:7d:d4:14:2b:a4:b6:5b:dc:ed:35:03:30:2f:7a:db:76:
        a4:f6:f4:1d:82:74:3a:cf:73:6d:dc:03:43:fe:e9:20:4f:d5:
        1f:4d:fe:49:ee:a0:e9:de:64:7d:26:3f:8c:43:1b:3b:ca:e3:
        79:5d:8f:ed:2a:d8:32:ea:eb:2e:99:18:58:0a:e5:7a:8c:be:
        38:a2:5c:4f:78:04:8a:18:5c:bb:9c:51:cd:80:63:db:74:86:
        7d:73:18:a1:a5:ae:e9:b0:6e:d2:c2:9c:b6:23:58:b9:44:01:
        5b:26:7d:1a:d7:62:4b:63:5d:2d:ca:b1:c9:fe:ef:d4:ba:35:
        0b:cc:43:7a:70:06:3a:9f:a7:90:45:c7:48:60:88:57:d5:7d:
        07:c4:57:f5:aa:72:cc:99:25:3d:35:b1:10:2c:e3:38:a8:84:
        b5:27:77:88:45:21:cf:5e:50:33:c8:3b:2b:69:0e:bb:08:c3:
        24:11:2e:d8:05:30:da:34:c8:bc:dc:4d:55:6d:4e:e6:1f:28:
        93:73:61:88:cc:42:2f:05:e2:7d:20:90:9e:0c:cd:18:95:2d:
        2b:0a:1a:4f:28:32:e9:f3:55:80:d7:b7:3a:98:e7:c3:0b:ba:
        ae:eb:da:81:9f:cf:89:c8:14:c1:da:86:fa:22:ea:6d:ba:fe:
        e9:f0:8b:7d:09:77:18:1c:b9:7e:d0:91:ea:92:ef:80:84:78:
        b4:21:e2:4d:6c:b1:ac:50:23:89:ff:3e:13:93:0c:94:3a:31:
        ed:ed:43:e2:3e:57:78:ca:28:fd:e9:63:ed:aa:45:2e:55:ea:
        36:85:3c:a1:23:bf:40:29:62:28:b3:bf:d3:71:b7:10:19:9e:
        fe:7e:62:c5:c1:54:a8:ed:6f:c0:fd:a3:c9:32:04:74:c2:c0:
        5d:b6:12:a3:b6:7d:e1:7f:e7:ee:5e:cc:b5:4f:5d:97:92:b9:
        8a:02:c2:da:10:87:27:dc:cf:cd:4e:e5:e1:4e:94:94:21:e0:
        90:62:91:63:e2:8e:9e:c1:d8:ea:63:50:bf:03:0a:97:e7:a8:
        55:09:24:ad:25:b7:d6:b8:51:95:68:f8:0c:85:83:26:55:31:
        ff:6f:d6:cf:42:74:68:1d:4f:a3:1c:e7:83:d0:c4:6c:df:da:
        df:ea:0a:0c:c2:39:4e:08:f9:6d:25:c4:69:e2:d6:2d:60:77:
        09:25:86:b1:e1:ec:25:15:ea:5d:f3:6e:92:fa:56:13:10:36:
        d7:63:57:53:b9:5e:75:45:5d:89:f5:47:7b:d3:0b:b1:cc:d4:
        a9:bf:df:c6:82:c7:d8:39
-----BEGIN CERTIFICATE-----
MIIEazCCAlOgAwIBAgICEAQwDQYJKoZIhvcNAQELBQAwfjELMAkGA1UEBhMCVVMx
CzAJBgNVBAgMAkNPMQ8wDQYDVQQHDAZEZW52ZXIxFDASBgNVBAoMC1NpZ25pbmdD
QV8xMSQwIgYDVQQLDBtDQV9JbnRlcm1lZGlhdGVfU2lnbmluZ0NBXzIxFTATBgNV
BAMMDEludGVybWVkaWF0ZTAeFw0yNDEyMTEyMTU2MjVaFw0yNTEyMjEyMTU2MjVa
MC8xEzARBgNVBAMMCklERU5USVRZXzMxCzAJBgNVBAgMAkNPMQswCQYDVQQGEwJV
UzCCASIwDQYJKoZIhvcNAQEBBQADggEPADCCAQoCggEBANV+g3ubisjnDtUZmhQb
UF4e+Pa8NUtegzkJmaCz0vytrEhbu8Tr+MgxbBrZecjNDwPvGRnIODhRNPGi7yH0
15q+ow/MRV666QA0F7lPv/7oJHpdns7prelpUfIPBnBEd+Q48zZSCryMarx+pqv5
qvcX7TFpTTXAmqGuhd6C+/gNKaBo6672vDnlrN3WOa3/18N75DTG3rQL2BJqBvo1
qR5qi7V3pscTUD8wOa3sfogfNS9QNzJ+cViwDgxEiGPvtLwsCmW2c8wyTScLDROO
HQBHnjgxRiBQvQln0wOyEmoqrQeQIE5IKubCXrpz2YjSc1hmsxpAIVebfD87lkvp
wPUCAwEAAaNCMEAwHQYDVR0OBBYEFGqXffYTMDIFsFctkbIfNasrxnlwMB8GA1Ud
IwQYMBaAFM3jBA9cfrTHfRp5nsKeZeXMuYfzMA0GCSqGSIb3DQEBCwUAA4ICAQA3
Wpiy7N3YERYsx3TM+s6UIZ/ATn3UFCuktlvc7TUDMC9623ak9vQdgnQ6z3Nt3AND
/ukgT9UfTf5J7qDp3mR9Jj+MQxs7yuN5XY/tKtgy6usumRhYCuV6jL44olxPeASK
GFy7nFHNgGPbdIZ9cxihpa7psG7Swpy2I1i5RAFbJn0a12JLY10tyrHJ/u/UujUL
zEN6cAY6n6eQRcdIYIhX1X0HxFf1qnLMmSU9NbEQLOM4qIS1J3eIRSHPXlAzyDsr
aQ67CMMkES7YBTDaNMi83E1VbU7mHyiTc2GIzEIvBeJ9IJCeDM0YlS0rChpPKDLp
81WA17c6mOfDC7qu69qBn8+JyBTB2ob6Iuptuv7p8It9CXcYHLl+0JHqku+AhHi0
IeJNbLGsUCOJ/z4TkwyUOjHt7UPiPld4yij96WPtqkUuVeo2hTyhI79AKWIos7/T
cbcQGZ7+fmLFwVSo7W/A/aPJMgR0wsBdthKjtn3hf+fuXsy1T12XkrmKAsLaEIcn
3M/NTuXhTpSUIeCQYpFj4o6ewdjqY1C/AwqX56hVCSStJbfWuFGVaPgMhYMmVTH/
b9bPQnRoHU+jHOeD0MRs39rf6goMwjlOCPltJcRp4tYtYHcJJYax4ewlFepd826S
+lYTEDbXY1dTuV51RV2J9Ud70wuxzNSpv9/GgsfYOQ==
-----END CERTIFICATE-----
