Certificate:
    Data:
        Version: 3 (0x2)
        Serial Number: 4101 (0x1005)
        Signature Algorithm: sha256WithRSAEncryption
        Issuer: C=US, ST=CO, L=Denver, O=SigningCA_1, OU=CA_Intermediate_SigningCA_2, CN=Intermediate
        Validity
            Not Before: Dec 11 21:56:26 2024 GMT
            Not After : Dec 21 21:56:26 2025 GMT
        Subject: CN=IDENTITY_4, ST=CO, C=US
        Subject Public Key Info:
            Public Key Algorithm: rsaEncryption
                Public-Key: (2048 bit)
                Modulus:
                    00:ab:f9:8d:8e:b1:da:28:f4:2e:26:10:21:7b:16:
                    a9:7c:5f:5c:21:d2:67:62:be:c9:a4:fd:e0:11:c2:
                    11:10:da:08:15:03:c2:6a:01:42:b9:cf:98:06:4f:
                    5c:7c:1a:65:de:08:f3:71:cd:bc:25:05:58:0c:6e:
                    62:05:c4:e9:09:f7:d1:ee:22:d8:78:6d:57:c5:ed:
                    55:ae:5d:7d:63:0f:bb:73:40:a9:30:b5:49:4e:d5:
                    31:f0:85:e6:b7:15:1c:b5:76:f3:36:48:87:89:df:
                    b6:6b:ed:c0:85:59:2a:92:16:41:b1:21:21:d4:e8:
                    b6:a4:dc:01:73:e5:cd:36:19:ad:c1:bb:c2:b2:15:
                    8c:a2:40:bc:ce:dd:a5:a2:99:66:3e:bc:fd:2c:76:
                    cf:16:53:43:29:f0:86:7e:a7:af:69:f6:dc:e2:50:
                    a8:cc:2c:a0:8c:5e:3f:b7:c7:f8:a5:08:b0:89:09:
                    d1:94:38:de:70:e6:01:89:4a:00:82:de:ec:02:66:
                    6a:f2:db:df:33:d3:a6:e3:9e:c3:0f:ab:50:0a:04:
                    9f:1b:50:3e:7b:83:8c:a7:fa:4d:e3:39:34:d3:dd:
                    ca:78:8f:41:6f:9b:1e:19:3f:99:d4:25:eb:29:4b:
                    73:f6:f8:46:de:cb:34:47:d3:d7:f2:3d:e8:b5:be:
                    da:b9
                Exponent: 65537 (0x10001)
        X509v3 extensions:
            X509v3 Subject Key Identifier: 
                05:C1:DD:A6:A2:EF:73:A9:2F:18:C4:66:B1:A5:9F:F7:E8:78:3B:2D
            X509v3 Authority Key Identifier: 
                CD:E3:04:0F:5C:7E:B4:C7:7D:1A:79:9E:C2:9E:65:E5:CC:B9:87:F3
    Signature Algorithm: sha256WithRSAEncryption
    Signature Value:
        44:09:de:c5:99:04:0b:42:36:e7:70:b1:da:3e:df:5d:8f:4a:
        d4:32:ad:78:e4:74:04:b5:d4:50:b8:c5:38:5e:64:c7:31:90:
        d8:5b:60:2a:61:a5:3b:65:90:fa:e3:77:fe:08:81:41:aa:bc:
        13:f5:31:5f:8a:b2:85:4e:5d:fe:29:b4:e0:92:62:93:3b:4b:
        f1:af:07:34:e9:2e:1c:21:ae:47:01:d0:cf:7d:ee:0d:fd:f8:
        9e:44:ed:a6:de:de:9d:97:2b:12:54:82:aa:d1:a7:9e:04:8a:
        e9:40:41:65:cc:c9:1a:c5:f2:07:24:c7:f6:40:dc:ff:e5:4d:
        ae:e2:a8:56:fd:18:7f:ad:2c:14:9c:ce:e2:d1:38:aa:11:51:
        e7:d0:13:bb:c5:d0:6d:94:63:3c:31:16:d7:1a:d4:5b:6f:0f:
        45:4f:32:80:cc:72:bf:b5:12:88:4e:0e:96:37:5a:7c:6a:0c:
        c5:de:17:0b:b8:79:a6:ee:49:5e:ea:20:f6:88:36:ac:0c:eb:
        a3:33:1c:2c:ea:b7:08:2f:c8:7a:60:d9:08:d4:0e:d1:3d:a8:
        b2:2f:9e:8f:5d:00:6d:eb:be:da:fc:f2:7b:5c:b2:d4:83:65:
        b3:ba:77:2a:5b:cb:31:27:b0:ed:8d:4b:a4:f3:54:2a:ee:1b:
        be:6c:b7:18:74:8a:a1:e2:5b:d8:08:50:19:0c:5c:ee:b5:2a:
        d4:72:bf:db:fe:dd:fc:92:33:a8:79:dc:66:5e:c3:8f:54:eb:
        6b:7b:aa:52:b4:a4:dd:bc:88:bc:7d:c5:47:f5:5d:4f:0e:6e:
        e7:23:e6:e9:1a:bf:37:43:ed:1e:51:fa:ff:56:e9:23:fa:63:
        6a:3d:e9:37:8c:92:52:31:45:85:16:b7:e0:12:4c:ad:4e:76:
        b5:d6:6c:81:aa:98:b9:5d:cd:25:74:39:00:c8:f6:1b:85:28:
        16:a1:ce:33:07:c7:26:7e:4b:0b:38:ce:80:e1:c0:48:2f:33:
        8c:61:cd:8c:74:29:84:5c:aa:0e:fe:fe:9b:67:98:7b:96:87:
        a2:d0:09:5d:13:8e:e6:f4:25:a9:05:f7:c7:eb:f5:f3:d1:8c:
        ef:59:a2:3f:fa:7b:a4:6d:5d:ac:b7:30:6e:ac:dc:a5:94:d9:
        f0:d6:53:d2:f6:63:64:b8:7c:3e:84:ed:97:b4:ad:80:db:9f:
        08:44:e5:39:78:e0:52:eb:ec:4e:77:3d:e1:b8:d3:83:64:56:
        2d:54:19:2d:ba:9d:b1:49:0d:96:f6:b2:22:18:da:91:92:31:
        8f:5c:17:e3:da:f0:e9:d3:6b:fb:cf:26:a4:20:18:9d:ba:9f:
        44:0f:c9:c2:33:e0:37:13
-----BEGIN CERTIFICATE-----
MIIEazCCAlOgAwIBAgICEAUwDQYJKoZIhvcNAQELBQAwfjELMAkGA1UEBhMCVVMx
CzAJBgNVBAgMAkNPMQ8wDQYDVQQHDAZEZW52ZXIxFDASBgNVBAoMC1NpZ25pbmdD
QV8xMSQwIgYDVQQLDBtDQV9JbnRlcm1lZGlhdGVfU2lnbmluZ0NBXzIxFTATBgNV
BAMMDEludGVybWVkaWF0ZTAeFw0yNDEyMTEyMTU2MjZaFw0yNTEyMjEyMTU2MjZa
MC8xEzARBgNVBAMMCklERU5USVRZXzQxCzAJBgNVBAgMAkNPMQswCQYDVQQGEwJV
UzCCASIwDQYJKoZIhvcNAQEBBQADggEPADCCAQoCggEBAKv5jY6x2ij0LiYQIXsW
qXxfXCHSZ2K+yaT94BHCERDaCBUDwmoBQrnPmAZPXHwaZd4I83HNvCUFWAxuYgXE
6Qn30e4i2HhtV8XtVa5dfWMPu3NAqTC1SU7VMfCF5rcVHLV28zZIh4nftmvtwIVZ
KpIWQbEhIdTotqTcAXPlzTYZrcG7wrIVjKJAvM7dpaKZZj68/Sx2zxZTQynwhn6n
r2n23OJQqMwsoIxeP7fH+KUIsIkJ0ZQ43nDmAYlKAILe7AJmavLb3zPTpuOeww+r
UAoEnxtQPnuDjKf6TeM5NNPdyniPQW+bHhk/mdQl6ylLc/b4Rt7LNEfT1/I96LW+
2rkCAwEAAaNCMEAwHQYDVR0OBBYEFAXB3aai73OpLxjEZrGln/foeDstMB8GA1Ud
IwQYMBaAFM3jBA9cfrTHfRp5nsKeZeXMuYfzMA0GCSqGSIb3DQEBCwUAA4ICAQBE
Cd7FmQQLQjbncLHaPt9dj0rUMq145HQEtdRQuMU4XmTHMZDYW2AqYaU7ZZD643f+
CIFBqrwT9TFfirKFTl3+KbTgkmKTO0vxrwc06S4cIa5HAdDPfe4N/fieRO2m3t6d
lysSVIKq0aeeBIrpQEFlzMkaxfIHJMf2QNz/5U2u4qhW/Rh/rSwUnM7i0TiqEVHn
0BO7xdBtlGM8MRbXGtRbbw9FTzKAzHK/tRKITg6WN1p8agzF3hcLuHmm7kle6iD2
iDasDOujMxws6rcIL8h6YNkI1A7RPaiyL56PXQBt677a/PJ7XLLUg2WzuncqW8sx
J7DtjUuk81Qq7hu+bLcYdIqh4lvYCFAZDFzutSrUcr/b/t38kjOoedxmXsOPVOtr
e6pStKTdvIi8fcVH9V1PDm7nI+bpGr83Q+0eUfr/Vukj+mNqPek3jJJSMUWFFrfg
EkytTna11myBqpi5Xc0ldDkAyPYbhSgWoc4zB8cmfksLOM6A4cBILzOMYc2MdCmE
XKoO/v6bZ5h7loei0AldE47m9CWpBffH6/Xz0YzvWaI/+nukbV2stzBurNyllNnw
1lPS9mNkuHw+hO2XtK2A258IROU5eOBS6+xOdz3huNODZFYtVBktup2xSQ2W9rIi
GNqRkjGPXBfj2vDp02v7zyakIBidup9ED8nCM+A3Ew==
-----END CERTIFICATE-----
