Certificate:
    Data:
        Version: 3 (0x2)
        Serial Number: 4102 (0x1006)
        Signature Algorithm: sha256WithRSAEncryption
        Issuer: C=US, ST=CO, L=Denver, O=SigningCA_1, OU=CA_Intermediate_SigningCA_2, CN=Intermediate
        Validity
            Not Before: Dec 11 21:56:26 2024 GMT
            Not After : Dec 21 21:56:26 2025 GMT
        Subject: CN=IDENTITY_5, ST=CO, C=US
        Subject Public Key Info:
            Public Key Algorithm: rsaEncryption
                Public-Key: (2048 bit)
                Modulus:
                    00:d1:1b:78:f0:d5:86:db:6d:ef:84:10:24:1d:5a:
                    8a:a7:03:87:74:a2:70:45:60:b2:d6:84:4e:72:b1:
                    59:4f:95:16:f6:a9:47:6a:d1:e1:74:d7:c1:42:a6:
                    7b:5a:a6:00:9c:ce:51:55:9e:2e:f7:d1:20:df:07:
                    eb:56:7e:03:37:cf:c1:34:51:09:56:4c:fe:af:37:
                    5a:15:db:a9:c1:ba:24:c3:c1:4d:3b:fb:64:cc:b8:
                    89:a1:75:eb:77:b8:4d:bb:d0:e3:8a:be:9e:07:52:
                    f6:c3:3b:c4:9a:f4:e2:fd:48:46:f7:f4:d1:e3:a2:
                    d0:3b:78:dc:02:9a:ec:0e:a2:b9:41:e9:1c:db:a4:
                    f1:54:bf:cc:6d:b7:1b:26:83:fa:1a:a9:ed:6e:3b:
                    1b:1a:cf:bb:03:15:01:fe:88:ed:e2:d6:30:a9:f2:
                    56:a3:34:90:cf:e4:f3:60:3f:d4:42:e8:a5:3e:3a:
                    e7:12:bd:f4:ac:e8:d7:d5:a2:4b:df:c6:1c:77:17:
                    74:e7:89:84:4a:b8:67:cf:23:b0:ed:42:80:55:0d:
                    3a:fe:57:14:51:41:3e:69:a2:d4:f7:2f:51:e2:25:
                    62:e4:9c:bb:31:6f:42:b3:bb:3f:6a:99:3b:b4:91:
                    22:a3:4c:e2:c9:26:8b:ab:df:17:9f:b1:0c:64:c9:
                    61:ab
                Exponent: 65537 (0x10001)
        X509v3 extensions:
            X509v3 Subject Key Identifier: 
                3A:27:39:CF:2C:D1:6D:56:8F:97:E7:15:BA:99:15:1C:7D:5C:04:80
            X509v3 Authority Key Identifier: 
                CD:E3:04:0F:5C:7E:B4:C7:7D:1A:79:9E:C2:9E:65:E5:CC:B9:87:F3
    Signature Algorithm: sha256WithRSAEncryption
    Signature Value:
        5a:cb:63:5d:49:70:a6:cf:77:9a:13:7f:ba:3c:94:c7:0c:68:
        1a:bd:ae:8a:8d:33:e9:0c:88:b4:21:6f:a0:a3:e0:79:11:ba:
        bd:8d:ff:2f:3d:d3:43:10:a8:ac:9f:fd:5e:fa:b3:5e:91:c0:
        17:b4:96:4f:4e:78:91:f6:8b:85:0a:be:12:42:3f:62:c8:42:
        49:79:9b:e9:c8:76:bd:4c:8e:99:8a:8f:11:9a:0a:cd:06:fa:
        c8:72:be:80:1f:6f:26:e8:cb:d9:4a:6a:dd:14:6d:c1:60:68:
        39:cd:33:57:1f:df:7f:2c:38:36:1c:ab:04:48:e4:fa:02:9c:
        64:b8:1f:9a:23:59:a4:37:e1:83:a1:68:ec:58:07:94:7a:9f:
        ba:7d:f9:2d:91:72:ab:02:2a:af:45:86:3b:c8:51:e9:ca:9e:
        97:a8:e9:c1:28:b0:44:6a:2a:87:8c:bb:cf:0b:dc:0e:0d:a2:
        94:6e:e8:f3:99:df:7c:ab:c2:d2:50:ef:60:5d:bf:2d:6e:f3:
        a8:db:06:71:20:b0:c7:4c:ab:1c:89:b7:53:80:0e:b7:da:f0:
        3c:33:81:45:b4:f9:ce:83:83:3f:5a:95:6b:c8:33:77:76:c2:
        a8:15:7c:5c:64:fe:0b:4f:26:8e:f8:38:72:91:99:b4:0a:30:
        19:5c:ac:8b:dd:68:a5:22:ef:50:1d:22:4a:03:1e:6e:e7:17:
        c7:99:c6:c8:48:9d:54:0c:ad:ab:27:02:c2:db:01:2f:2d:6a:
        e2:b4:a2:e7:e6:6e:53:c6:66:0d:04:bb:fc:96:90:2c:84:59:
        a5:7d:4a:f4:80:28:9d:49:79:19:b2:18:8a:0f:94:e6:f2:4d:
        e3:62:a3:e5:25:3d:a0:ec:35:a7:44:1d:42:30:aa:02:46:ba:
        ce:da:97:e1:e8:73:3c:ca:cc:7f:47:f3:e5:f0:32:56:7c:57:
        9b:c0:89:3e:13:90:50:14:27:37:b4:2b:d8:f1:4c:a3:46:fc:
        54:20:d6:83:40:84:b6:5c:10:18:80:17:00:81:79:6b:95:66:
        8d:22:aa:e2:d2:0b:f7:e0:b0:15:e5:cf:eb:0b:7b:a1:8b:58:
        f8:0e:55:8e:92:e8:bd:79:52:cd:28:d8:36:b3:0b:06:58:b6:
        8e:8e:34:4e:6c:1c:5b:dc:56:91:36:91:d7:01:2a:18:65:3e:
        88:83:3f:ac:fc:87:bb:5d:44:40:ac:2c:6c:d3:24:b0:4c:07:
        6c:bc:cb:e8:f2:33:ca:f8:51:31:d8:6d:dd:5e:7e:19:53:9c:
        eb:33:c4:84:70:7c:c7:c9:7a:0c:40:a6:f9:0c:01:0a:4d:da:
        5a:cb:f8:23:00:66:98:6f
-----BEGIN CERTIFICATE-----
MIIEazCCAlOgAwIBAgICEAYwDQYJKoZIhvcNAQELBQAwfjELMAkGA1UEBhMCVVMx
CzAJBgNVBAgMAkNPMQ8wDQYDVQQHDAZEZW52ZXIxFDASBgNVBAoMC1NpZ25pbmdD
QV8xMSQwIgYDVQQLDBtDQV9JbnRlcm1lZGlhdGVfU2lnbmluZ0NBXzIxFTATBgNV
BAMMDEludGVybWVkaWF0ZTAeFw0yNDEyMTEyMTU2MjZaFw0yNTEyMjEyMTU2MjZa
MC8xEzARBgNVBAMMCklERU5USVRZXzUxCzAJBgNVBAgMAkNPMQswCQYDVQQGEwJV
UzCCASIwDQYJKoZIhvcNAQEBBQADggEPADCCAQoCggEBANEbePDVhttt74QQJB1a
iqcDh3SicEVgstaETnKxWU+VFvapR2rR4XTXwUKme1qmAJzOUVWeLvfRIN8H61Z+
AzfPwTRRCVZM/q83WhXbqcG6JMPBTTv7ZMy4iaF163e4TbvQ44q+ngdS9sM7xJr0
4v1IRvf00eOi0Dt43AKa7A6iuUHpHNuk8VS/zG23GyaD+hqp7W47GxrPuwMVAf6I
7eLWMKnyVqM0kM/k82A/1ELopT465xK99Kzo19WiS9/GHHcXdOeJhEq4Z88jsO1C
gFUNOv5XFFFBPmmi1PcvUeIlYuScuzFvQrO7P2qZO7SRIqNM4skmi6vfF5+xDGTJ
YasCAwEAAaNCMEAwHQYDVR0OBBYEFDonOc8s0W1Wj5fnFbqZFRx9XASAMB8GA1Ud
IwQYMBaAFM3jBA9cfrTHfRp5nsKeZeXMuYfzMA0GCSqGSIb3DQEBCwUAA4ICAQBa
y2NdSXCmz3eaE3+6PJTHDGgava6KjTPpDIi0IW+go+B5Ebq9jf8vPdNDEKisn/1e
+rNekcAXtJZPTniR9ouFCr4SQj9iyEJJeZvpyHa9TI6Zio8RmgrNBvrIcr6AH28m
6MvZSmrdFG3BYGg5zTNXH99/LDg2HKsESOT6ApxkuB+aI1mkN+GDoWjsWAeUep+6
ffktkXKrAiqvRYY7yFHpyp6XqOnBKLBEaiqHjLvPC9wODaKUbujzmd98q8LSUO9g
Xb8tbvOo2wZxILDHTKscibdTgA632vA8M4FFtPnOg4M/WpVryDN3dsKoFXxcZP4L
TyaO+DhykZm0CjAZXKyL3WilIu9QHSJKAx5u5xfHmcbISJ1UDK2rJwLC2wEvLWri
tKLn5m5TxmYNBLv8lpAshFmlfUr0gCidSXkZshiKD5Tm8k3jYqPlJT2g7DWnRB1C
MKoCRrrO2pfh6HM8ysx/R/Pl8DJWfFebwIk+E5BQFCc3tCvY8UyjRvxUINaDQIS2
XBAYgBcAgXlrlWaNIqri0gv34LAV5c/rC3uhi1j4DlWOkui9eVLNKNg2swsGWLaO
jjRObBxb3FaRNpHXASoYZT6Igz+s/Ie7XURArCxs0ySwTAdsvMvo8jPK+FEx2G3d
Xn4ZU5zrM8SEcHzHyXoMQKb5DAEKTdpay/gjAGaYbw==
-----END CERTIFICATE-----
