Certificate:
    Data:
        Version: 3 (0x2)
        Serial Number: 4096 (0x1000)
        Signature Algorithm: sha256WithRSAEncryption
        Issuer: C=US, ST=CO, L=Denver, O=SigningCA_1, OU=CA_Intermediate_SigningCA_2, CN=Intermediate
        Validity
            Not Before: Dec 11 20:55:15 2024 GMT
            Not After : Dec 21 20:55:15 2025 GMT
        Subject: CN=sEaU-98z3, ST=TX, C=US
        Subject Public Key Info:
            Public Key Algorithm: rsaEncryption
                Public-Key: (2048 bit)
                Modulus:
                    00:9a:5b:0a:57:5b:34:b9:1d:db:3a:85:3a:31:a3:
                    27:21:5b:b7:7f:42:93:c0:dc:cd:86:e1:ed:5d:82:
                    c7:9f:6f:f5:4b:6c:65:93:8c:7f:5a:b4:e9:eb:df:
                    7a:a2:b2:d0:0c:8e:12:f4:45:e8:d7:ca:19:3e:db:
                    91:93:74:88:7d:9a:74:28:f8:4f:cb:b0:44:af:f1:
                    f4:98:e4:06:82:88:64:03:a3:50:a8:08:cd:58:31:
                    19:96:30:f6:c7:93:e5:12:33:e2:5a:d6:80:5d:ef:
                    ea:db:fd:52:0d:2f:3c:78:c2:36:7d:9b:3c:35:27:
                    fd:44:87:ad:59:47:d0:e2:9b:84:05:92:af:b7:32:
                    34:2f:16:a9:f5:52:57:b5:12:0f:72:9d:60:74:b9:
                    48:38:bf:2c:35:b9:b3:82:e7:e6:1e:8b:40:fb:a2:
                    72:db:72:15:6f:bd:42:2a:11:f5:14:cf:79:01:e7:
                    b4:13:67:3e:eb:56:88:0e:d2:52:e5:7a:85:24:39:
                    c5:fe:98:78:00:9d:64:32:54:95:75:d2:a8:3d:42:
                    9f:8f:5e:6b:05:50:8f:2d:62:1d:a7:d3:cc:ac:68:
                    75:8f:3a:69:61:96:cc:7c:77:a2:29:dd:1a:9a:fb:
                    93:61:f5:3f:2c:c4:87:66:f1:d4:8a:ed:c9:4b:99:
                    b3:19
                Exponent: 65537 (0x10001)
        X509v3 extensions:
            X509v3 Subject Key Identifier: 
                DE:57:0C:FC:75:FF:1E:50:1E:BA:DD:AD:AC:D2:51:AE:B7:FD:E0:E5
            X509v3 Authority Key Identifier: 
                CD:E3:04:0F:5C:7E:B4:C7:7D:1A:79:9E:C2:9E:65:E5:CC:B9:87:F3
    Signature Algorithm: sha256WithRSAEncryption
    Signature Value:
        6f:c4:f5:e5:2a:d7:86:6a:13:c5:38:f6:ff:1e:22:f4:1d:16:
        f3:48:01:b6:f9:fa:12:0d:59:5b:1e:6d:ae:f9:53:6c:f4:4c:
        3f:d5:69:c1:8f:9b:c6:b5:a3:98:56:ed:af:7d:d0:35:f8:12:
        2b:82:dc:67:f4:67:84:4f:8f:ec:32:81:9e:3b:9e:11:69:66:
        27:48:0e:af:60:0e:9c:44:7c:62:79:1a:bb:4d:96:31:ab:f6:
        f9:e8:86:3f:ff:9d:c4:6a:16:cc:89:47:61:c3:e0:23:8c:84:
        63:70:e9:6a:24:46:34:c8:eb:c5:91:7d:22:92:5b:d4:5c:d7:
        1c:ad:e1:af:4a:c5:d6:8f:f6:e6:34:7d:8b:53:d0:80:35:d3:
        a2:95:12:65:c0:5c:8c:89:ee:d5:3e:53:05:ba:1e:fc:31:c8:
        ac:44:af:fb:fb:b2:3f:7f:a2:d8:64:0d:8f:ce:69:54:d0:37:
        f3:f7:1b:3a:ec:75:25:44:4e:77:3c:39:94:86:86:1f:0c:b8:
        28:d0:c0:8a:22:68:e7:a0:24:2c:ea:f7:3d:3d:49:91:a1:27:
        4c:fe:24:33:67:1e:24:6b:c5:db:30:36:87:35:b4:c7:fe:cd:
        2e:b2:b1:0e:50:2a:2a:73:a1:b0:08:51:07:61:1e:bb:c8:12:
        53:b3:b7:17:b7:8d:20:b5:33:9f:09:d1:a9:53:28:3c:f1:0a:
        6e:06:37:af:a2:c3:00:31:20:69:08:96:e6:38:8a:23:25:cd:
        d0:be:48:9a:1e:bd:93:03:7d:96:6c:fd:63:90:74:d6:7a:1e:
        af:34:3d:54:44:51:8c:a3:09:00:36:24:9a:f7:85:33:59:4d:
        e6:78:57:ab:3e:9c:65:25:b5:5e:b8:c6:22:3f:7e:50:8c:84:
        ac:a5:8e:e9:d2:75:46:a7:dd:3b:f1:14:6f:c7:55:3a:dc:f4:
        b5:ad:7f:3c:fd:af:9e:3e:d2:9c:57:be:8e:7b:56:fc:ba:ee:
        0a:3d:94:19:c7:72:81:5e:06:64:45:bc:d2:db:22:c2:96:e2:
        12:72:51:c9:9c:03:40:0a:a0:04:44:19:67:6c:3f:43:38:64:
        4e:47:a3:a1:c0:09:b6:1f:cf:ab:b9:cf:93:87:d3:03:b0:25:
        cf:07:7a:a9:96:38:1c:bd:90:f0:e0:b7:7e:80:71:76:47:81:
        29:f5:f3:31:09:b5:89:04:1c:51:aa:9c:2c:0b:0f:cc:f0:11:
        38:46:3c:14:cf:5e:e0:90:67:7e:49:eb:14:77:f7:3e:bc:20:
        33:0b:db:ca:7f:d7:ca:0b:cc:34:69:8a:a6:b1:2f:b0:62:01:
        92:7b:17:c2:38:0a:9e:66
-----BEGIN CERTIFICATE-----
MIIEajCCAlKgAwIBAgICEAAwDQYJKoZIhvcNAQELBQAwfjELMAkGA1UEBhMCVVMx
CzAJBgNVBAgMAkNPMQ8wDQYDVQQHDAZEZW52ZXIxFDASBgNVBAoMC1NpZ25pbmdD
QV8xMSQwIgYDVQQLDBtDQV9JbnRlcm1lZGlhdGVfU2lnbmluZ0NBXzIxFTATBgNV
BAMMDEludGVybWVkaWF0ZTAeFw0yNDEyMTEyMDU1MTVaFw0yNTEyMjEyMDU1MTVa
MC4xEjAQBgNVBAMMCXNFYVUtOTh6MzELMAkGA1UECAwCVFgxCzAJBgNVBAYTAlVT
MIIBIjANBgkqhkiG9w0BAQEFAAOCAQ8AMIIBCgKCAQEAmlsKV1s0uR3bOoU6MaMn
IVu3f0KTwNzNhuHtXYLHn2/1S2xlk4x/WrTp6996orLQDI4S9EXo18oZPtuRk3SI
fZp0KPhPy7BEr/H0mOQGgohkA6NQqAjNWDEZljD2x5PlEjPiWtaAXe/q2/1SDS88
eMI2fZs8NSf9RIetWUfQ4puEBZKvtzI0Lxap9VJXtRIPcp1gdLlIOL8sNbmzgufm
HotA+6Jy23IVb71CKhH1FM95Aee0E2c+61aIDtJS5XqFJDnF/ph4AJ1kMlSVddKo
PUKfj15rBVCPLWIdp9PMrGh1jzppYZbMfHeiKd0amvuTYfU/LMSHZvHUiu3JS5mz
GQIDAQABo0IwQDAdBgNVHQ4EFgQU3lcM/HX/HlAeut2trNJRrrf94OUwHwYDVR0j
BBgwFoAUzeMED1x+tMd9Gnmewp5l5cy5h/MwDQYJKoZIhvcNAQELBQADggIBAG/E
9eUq14ZqE8U49v8eIvQdFvNIAbb5+hINWVseba75U2z0TD/VacGPm8a1o5hW7a99
0DX4EiuC3Gf0Z4RPj+wygZ47nhFpZidIDq9gDpxEfGJ5GrtNljGr9vnohj//ncRq
FsyJR2HD4COMhGNw6WokRjTI68WRfSKSW9Rc1xyt4a9KxdaP9uY0fYtT0IA106KV
EmXAXIyJ7tU+UwW6HvwxyKxEr/v7sj9/othkDY/OaVTQN/P3GzrsdSVETnc8OZSG
hh8MuCjQwIoiaOegJCzq9z09SZGhJ0z+JDNnHiRrxdswNoc1tMf+zS6ysQ5QKipz
obAIUQdhHrvIElOztxe3jSC1M58J0alTKDzxCm4GN6+iwwAxIGkIluY4iiMlzdC+
SJoevZMDfZZs/WOQdNZ6Hq80PVREUYyjCQA2JJr3hTNZTeZ4V6s+nGUltV64xiI/
flCMhKyljunSdUan3TvxFG/HVTrc9LWtfzz9r54+0pxXvo57Vvy67go9lBnHcoFe
BmRFvNLbIsKW4hJyUcmcA0AKoAREGWdsP0M4ZE5Ho6HACbYfz6u5z5OH0wOwJc8H
eqmWOBy9kPDgt36AcXZHgSn18zEJtYkEHFGqnCwLD8zwEThGPBTPXuCQZ35J6xR3
9z68IDML28p/18oLzDRpiqaxL7BiAZJ7F8I4Cp5m
-----END CERTIFICATE-----
