Certificate:
    Data:
        Version: 3 (0x2)
        Serial Number: 4097 (0x1001)
        Signature Algorithm: sha256WithRSAEncryption
        Issuer: C=US, ST=CO, L=Denver, O=SigningCA_1, OU=CA_Intermediate_SigningCA_2, CN=Intermediate
        Validity
            Not Before: Dec 11 20:55:19 2024 GMT
            Not After : Dec 21 20:55:19 2025 GMT
        Subject: CN=VzawN-ky6W
        Subject Public Key Info:
            Public Key Algorithm: rsaEncryption
                Public-Key: (2048 bit)
                Modulus:
                    00:d0:8e:7f:5a:80:ec:50:6e:91:0a:e4:0b:eb:00:
                    26:44:bc:7d:41:0c:14:90:bb:29:f4:5e:5c:59:67:
                    ac:af:70:a4:3b:0a:2b:4f:94:9f:7c:6f:53:f4:79:
                    4e:b0:65:10:2a:9a:ea:ca:ff:5a:eb:4b:e8:f9:f1:
                    9b:d4:be:0b:b0:7f:9d:1b:f5:15:da:d7:d9:83:9c:
                    14:22:61:33:26:d5:23:16:4c:47:a7:e8:35:58:e6:
                    35:b5:35:c5:84:9f:f4:22:d2:e7:3a:54:6e:8b:fb:
                    85:aa:55:81:ed:21:5d:58:73:82:c3:c6:d0:51:7d:
                    37:06:57:e2:be:2c:b7:52:6c:94:1e:b8:34:eb:b3:
                    0e:b0:6b:89:57:35:ec:07:ea:ba:0e:47:72:f4:ef:
                    4e:79:3a:74:24:42:d3:39:96:97:fc:ce:0d:73:a2:
                    6a:0a:0e:89:cf:30:35:d8:4a:84:07:ec:aa:c2:53:
                    5d:2e:15:5d:a6:76:90:26:bb:63:c4:92:79:7d:e8:
                    08:30:6d:22:a1:bf:9a:86:95:9e:5e:d8:ad:23:56:
                    fb:b6:eb:6f:87:c0:41:91:09:31:82:c0:1d:8f:95:
                    78:e8:fd:88:a9:62:bb:34:58:62:d1:bf:a9:dd:cd:
                    6c:a5:84:75:8e:f9:1c:69:2a:2e:6f:ae:84:31:f1:
                    75:09
                Exponent: 65537 (0x10001)
        X509v3 extensions:
            X509v3 Subject Key Identifier: 
                A1:57:2D:14:75:FC:F9:11:EC:46:E6:3B:EA:23:C7:5B:63:C3:0D:96
            X509v3 Authority Key Identifier: 
                CD:E3:04:0F:5C:7E:B4:C7:7D:1A:79:9E:C2:9E:65:E5:CC:B9:87:F3
    Signature Algorithm: sha256WithRSAEncryption
    Signature Value:
        19:7b:31:87:9f:b3:a6:20:67:56:01:2e:0c:91:c7:85:ac:f4:
        c5:19:25:be:6d:72:1a:c9:45:cb:44:63:a0:8b:41:09:0d:99:
        86:8a:5f:cd:11:92:78:e4:7a:22:36:d5:04:aa:36:ab:43:27:
        7a:10:c2:b9:4b:5d:76:a3:16:4a:c7:57:69:cf:03:6b:62:73:
        b5:2b:f1:fe:24:06:c3:ab:7b:95:ce:30:12:49:96:1a:7a:d8:
        8c:8c:bb:2c:e2:41:e7:9b:60:fe:c0:3b:b6:f5:a1:d4:9c:5d:
        6a:4f:3f:86:33:86:bb:08:80:e7:0b:07:41:16:57:84:9b:a9:
        45:83:97:1b:34:e5:6f:45:b4:e5:9b:3b:36:1a:c9:96:15:e4:
        1f:bf:d7:eb:92:66:ff:9e:c8:0a:67:6b:a9:e3:17:a8:a5:a0:
        fb:0e:b1:71:1a:b5:e2:23:75:a8:e2:53:88:71:2a:e1:bb:30:
        7a:fd:36:e7:ee:65:0b:ef:4a:f9:99:6d:d0:19:c3:a3:0c:7b:
        85:40:aa:10:4f:a3:7a:68:b4:3f:c4:b2:0b:1b:8c:ff:03:90:
        44:2d:fd:6f:46:e9:b8:6c:75:f9:67:88:b7:6c:ef:0a:ea:4d:
        26:a3:94:f6:01:77:2d:20:0b:dd:24:a9:93:a2:ce:4f:48:31:
        a3:95:40:ad:a8:c7:5f:a7:f2:85:f1:fa:c1:5a:ce:1d:ad:83:
        07:18:e8:e7:cb:9d:14:37:e1:bb:17:9e:4b:7b:be:b4:3b:12:
        bc:69:db:9e:30:e0:19:09:a7:ad:53:22:12:75:b2:88:0f:f8:
        17:69:46:7d:d7:83:0c:1e:fe:30:a6:f3:ef:de:5d:3e:1c:23:
        0b:24:78:c1:f9:f2:ca:0e:46:ac:d5:c7:13:bc:0e:4c:f0:e8:
        02:6d:89:31:cd:f7:35:ac:7e:b5:22:21:87:82:14:0b:d7:b0:
        c4:ba:6d:e9:af:2e:1f:65:e1:60:62:4b:99:da:db:c8:b8:18:
        3d:20:44:fc:df:02:f8:bd:03:a3:8a:a0:e7:77:f4:ce:a5:60:
        12:c2:5d:be:47:4c:fa:09:40:02:0b:d5:05:ee:97:7b:34:bd:
        1f:6b:8a:cc:f8:3c:d1:63:2c:d5:23:66:32:af:83:bf:2b:a7:
        29:8a:6e:88:ba:5d:50:af:0c:f6:ff:a4:b6:32:e7:43:9e:16:
        aa:a6:59:fc:e5:1f:69:cd:2c:3a:51:e5:1b:23:9e:37:b2:89:
        d8:74:7b:e0:59:57:5e:e2:16:b6:bd:28:b3:fb:c6:74:11:ba:
        2e:c2:51:9f:8e:ad:2e:8e:ab:1e:a8:a0:0a:e1:4f:dc:a9:0b:
        7a:1d:85:9e:f1:28:47:8d
-----BEGIN CERTIFICATE-----
MIIEUTCCAjmgAwIBAgICEAEwDQYJKoZIhvcNAQELBQAwfjELMAkGA1UEBhMCVVMx
CzAJBgNVBAgMAkNPMQ8wDQYDVQQHDAZEZW52ZXIxFDASBgNVBAoMC1NpZ25pbmdD
QV8xMSQwIgYDVQQLDBtDQV9JbnRlcm1lZGlhdGVfU2lnbmluZ0NBXzIxFTATBgNV
BAMMDEludGVybWVkaWF0ZTAeFw0yNDEyMTEyMDU1MTlaFw0yNTEyMjEyMDU1MTla
MBUxEzARBgNVBAMMClZ6YXdOLWt5NlcwggEiMA0GCSqGSIb3DQEBAQUAA4IBDwAw
ggEKAoIBAQDQjn9agOxQbpEK5AvrACZEvH1BDBSQuyn0XlxZZ6yvcKQ7CitPlJ98
b1P0eU6wZRAqmurK/1rrS+j58ZvUvguwf50b9RXa19mDnBQiYTMm1SMWTEen6DVY
5jW1NcWEn/Qi0uc6VG6L+4WqVYHtIV1Yc4LDxtBRfTcGV+K+LLdSbJQeuDTrsw6w
a4lXNewH6roOR3L07055OnQkQtM5lpf8zg1zomoKDonPMDXYSoQH7KrCU10uFV2m
dpAmu2PEknl96AgwbSKhv5qGlZ5e2K0jVvu262+HwEGRCTGCwB2PlXjo/YipYrs0
WGLRv6ndzWylhHWO+RxpKi5vroQx8XUJAgMBAAGjQjBAMB0GA1UdDgQWBBShVy0U
dfz5EexG5jvqI8dbY8MNljAfBgNVHSMEGDAWgBTN4wQPXH60x30aeZ7CnmXlzLmH
8zANBgkqhkiG9w0BAQsFAAOCAgEAGXsxh5+zpiBnVgEuDJHHhaz0xRklvm1yGslF
y0RjoItBCQ2ZhopfzRGSeOR6IjbVBKo2q0MnehDCuUtddqMWSsdXac8Da2JztSvx
/iQGw6t7lc4wEkmWGnrYjIy7LOJB55tg/sA7tvWh1Jxdak8/hjOGuwiA5wsHQRZX
hJupRYOXGzTlb0W05Zs7NhrJlhXkH7/X65Jm/57ICmdrqeMXqKWg+w6xcRq14iN1
qOJTiHEq4bswev025+5lC+9K+Zlt0BnDowx7hUCqEE+jemi0P8SyCxuM/wOQRC39
b0bpuGx1+WeIt2zvCupNJqOU9gF3LSAL3SSpk6LOT0gxo5VArajHX6fyhfH6wVrO
Ha2DBxjo58udFDfhuxeeS3u+tDsSvGnbnjDgGQmnrVMiEnWyiA/4F2lGfdeDDB7+
MKbz795dPhwjCyR4wfnyyg5GrNXHE7wOTPDoAm2JMc33Nax+tSIhh4IUC9ewxLpt
6a8uH2XhYGJLmdrbyLgYPSBE/N8C+L0Do4qg53f0zqVgEsJdvkdM+glAAgvVBe6X
ezS9H2uKzPg80WMs1SNmMq+DvyunKYpuiLpdUK8M9v+ktjLnQ54WqqZZ/OUfac0s
OlHlGyOeN7KJ2HR74FlXXuIWtr0os/vGdBG6LsJRn46tLo6rHqigCuFP3KkLeh2F
nvEoR40=
-----END CERTIFICATE-----
