Certificate:
    Data:
        Version: 3 (0x2)
        Serial Number: 4099 (0x1003)
        Signature Algorithm: sha256WithRSAEncryption
        Issuer: C=US, ST=CO, L=Denver, O=SigningCA_1, OU=CA_Intermediate_SigningCA_1, CN=Intermediate
        Validity
            Not Before: Dec 11 21:56:50 2024 GMT
            Not After : Dec 21 21:56:50 2025 GMT
        Subject: CN=IDENTITY_2, ST=CO, C=US
        Subject Public Key Info:
            Public Key Algorithm: rsaEncryption
                Public-Key: (2048 bit)
                Modulus:
                    00:9d:89:bc:fd:9f:eb:27:eb:e1:79:1d:4c:4c:fb:
                    2e:35:c3:88:ab:fc:2f:a2:32:0b:21:33:77:fe:04:
                    2d:88:d1:24:80:05:1b:37:b2:14:e0:52:ac:51:b6:
                    a7:82:6d:a2:c3:32:f6:14:1c:3c:f1:37:2d:d3:b8:
                    0e:04:35:a0:53:bd:b1:9a:85:e7:2e:80:60:a8:19:
                    68:6d:47:56:93:5c:5e:44:03:5e:15:c9:89:7e:ad:
                    ee:77:3c:27:42:7b:2e:d1:93:53:63:b5:6b:e1:b4:
                    ec:1a:2c:e5:2f:63:6f:71:04:08:03:5f:a2:1f:4a:
                    7e:0a:43:6f:bd:d0:53:51:4d:02:ee:13:2e:ed:26:
                    68:2c:35:3d:9d:23:05:e8:1f:9c:37:e4:9b:89:36:
                    ab:44:7b:53:46:10:c2:b0:99:d9:8a:ba:1b:96:a9:
                    7b:8c:87:bc:17:45:48:16:6c:25:3b:6e:b9:e7:04:
                    34:d3:bd:b3:41:dd:0b:90:c1:29:49:1e:ed:d0:26:
                    f5:4e:03:b5:86:50:a9:93:8e:d3:0b:cc:c6:8e:9e:
                    60:a0:1b:f4:c2:d1:5a:c4:82:30:ce:d2:80:31:ba:
                    d3:6f:00:60:00:87:b9:ed:9c:75:78:cd:aa:e9:5e:
                    8e:d5:e1:84:9a:bb:e6:d0:05:fd:b4:85:f3:1e:00:
                    cd:35
                Exponent: 65537 (0x10001)
        X509v3 extensions:
            X509v3 Subject Key Identifier: 
                D8:D6:4D:70:F8:A8:9F:29:75:93:F5:C3:E1:52:7B:E6:C2:4A:01:CD
            X509v3 Authority Key Identifier: 
                38:18:E1:6F:1D:88:53:5F:1D:BC:43:5B:EF:50:BF:23:F9:11:99:1F
    Signature Algorithm: sha256WithRSAEncryption
    Signature Value:
        98:b6:b3:97:42:47:30:54:4a:b0:59:b4:25:4b:95:29:fa:99:
        38:b9:44:73:67:72:88:ef:0c:01:45:25:05:bc:ab:83:d2:b4:
        78:32:f3:f2:69:4b:fb:97:da:4b:80:c8:19:7d:d8:1b:8a:99:
        c0:87:a4:04:a9:0f:ff:97:fb:78:63:c7:77:9a:ef:5f:99:36:
        de:df:a1:5a:f8:14:0c:65:ec:1b:bf:f7:dc:e5:00:a1:b4:cf:
        11:47:dc:f0:2a:c0:e0:49:e0:5d:93:85:10:7f:62:f6:75:44:
        d0:e8:9c:9e:90:f1:99:0f:96:28:46:e1:9d:47:ac:c2:9f:5c:
        84:9d:c3:23:7a:ed:8a:23:5f:70:5c:02:ef:20:88:be:69:ab:
        8c:0d:4e:06:b1:94:e2:d3:9a:08:3f:1b:34:16:06:f3:85:f7:
        2b:1c:2b:2b:2e:30:24:37:ef:96:09:11:3f:89:fa:a9:9e:50:
        d4:53:92:ee:2d:71:2b:a2:d6:29:d1:42:e5:36:87:45:9d:f0:
        36:10:41:e1:74:91:1b:3f:f2:79:72:18:fe:9c:8b:2a:e3:a6:
        be:67:a6:7e:a8:26:ea:26:ae:8a:64:2f:e6:59:9f:4d:d6:63:
        bb:70:91:ee:21:52:62:82:42:c9:9b:7f:75:ee:11:3c:d2:21:
        ed:10:1f:2b:3e:01:91:9d:f2:07:fb:8c:08:73:76:02:19:23:
        cd:c9:8a:60:75:72:98:50:a0:83:ea:9b:bc:0d:56:82:c4:16:
        08:b4:cb:f8:bb:7d:b2:ca:95:c0:0f:c2:4e:a4:4b:58:a4:11:
        32:78:22:d5:ee:50:86:11:cd:4a:b9:3c:a4:1f:f5:e8:e2:e8:
        d1:ea:e7:47:2a:60:e6:98:38:05:8a:01:7a:c0:06:e5:6b:55:
        14:eb:a3:ee:e0:2f:34:53:71:06:4f:8d:85:80:47:1f:63:df:
        22:0d:ee:da:a7:ec:1a:d0:c3:ed:cf:86:5f:24:6e:f6:6b:10:
        b6:13:8c:da:cd:5d:59:48:b1:18:53:84:c8:34:ae:92:bf:fd:
        c4:a7:2e:32:82:5a:64:bd:50:f2:14:c0:e2:40:f8:c8:ec:18:
        c0:91:54:a7:34:a0:84:00:8d:ff:ae:59:31:f6:fe:75:05:4c:
        03:19:b1:86:17:87:13:18:8e:a9:2c:3e:6e:32:42:ab:49:21:
        be:46:c6:57:56:72:bd:ca:1e:90:23:08:4c:3f:81:5f:0e:67:
        65:39:1d:b9:fe:47:79:94:be:db:1f:95:9c:c1:2d:b5:6d:3a:
        3f:48:d2:0c:49:16:8d:ca:a7:b8:c9:b8:d5:59:ac:01:df:60:
        57:dc:9f:99:df:21:8c:a2
-----BEGIN CERTIFICATE-----
MIIEazCCAlOgAwIBAgICEAMwDQYJKoZIhvcNAQELBQAwfjELMAkGA1UEBhMCVVMx
CzAJBgNVBAgMAkNPMQ8wDQYDVQQHDAZEZW52ZXIxFDASBgNVBAoMC1NpZ25pbmdD
QV8xMSQwIgYDVQQLDBtDQV9JbnRlcm1lZGlhdGVfU2lnbmluZ0NBXzExFTATBgNV
BAMMDEludGVybWVkaWF0ZTAeFw0yNDEyMTEyMTU2NTBaFw0yNTEyMjEyMTU2NTBa
MC8xEzARBgNVBAMMCklERU5USVRZXzIxCzAJBgNVBAgMAkNPMQswCQYDVQQGEwJV
UzCCASIwDQYJKoZIhvcNAQEBBQADggEPADCCAQoCggEBAJ2JvP2f6yfr4XkdTEz7
LjXDiKv8L6IyCyEzd/4ELYjRJIAFGzeyFOBSrFG2p4JtosMy9hQcPPE3LdO4DgQ1
oFO9sZqF5y6AYKgZaG1HVpNcXkQDXhXJiX6t7nc8J0J7LtGTU2O1a+G07Bos5S9j
b3EECANfoh9KfgpDb73QU1FNAu4TLu0maCw1PZ0jBegfnDfkm4k2q0R7U0YQwrCZ
2Yq6G5ape4yHvBdFSBZsJTtuuecENNO9s0HdC5DBKUke7dAm9U4DtYZQqZOO0wvM
xo6eYKAb9MLRWsSCMM7SgDG6028AYACHue2cdXjNqulejtXhhJq75tAF/bSF8x4A
zTUCAwEAAaNCMEAwHQYDVR0OBBYEFNjWTXD4qJ8pdZP1w+FSe+bCSgHNMB8GA1Ud
IwQYMBaAFDgY4W8diFNfHbxDW+9QvyP5EZkfMA0GCSqGSIb3DQEBCwUAA4ICAQCY
trOXQkcwVEqwWbQlS5Up+pk4uURzZ3KI7wwBRSUFvKuD0rR4MvPyaUv7l9pLgMgZ
fdgbipnAh6QEqQ//l/t4Y8d3mu9fmTbe36Fa+BQMZewbv/fc5QChtM8RR9zwKsDg
SeBdk4UQf2L2dUTQ6JyekPGZD5YoRuGdR6zCn1yEncMjeu2KI19wXALvIIi+aauM
DU4GsZTi05oIPxs0FgbzhfcrHCsrLjAkN++WCRE/ifqpnlDUU5LuLXErotYp0ULl
NodFnfA2EEHhdJEbP/J5chj+nIsq46a+Z6Z+qCbqJq6KZC/mWZ9N1mO7cJHuIVJi
gkLJm3917hE80iHtEB8rPgGRnfIH+4wIc3YCGSPNyYpgdXKYUKCD6pu8DVaCxBYI
tMv4u32yypXAD8JOpEtYpBEyeCLV7lCGEc1KuTykH/Xo4ujR6udHKmDmmDgFigF6
wAbla1UU66Pu4C80U3EGT42FgEcfY98iDe7ap+wa0MPtz4ZfJG72axC2E4zazV1Z
SLEYU4TINK6Sv/3Epy4yglpkvVDyFMDiQPjI7BjAkVSnNKCEAI3/rlkx9v51BUwD
GbGGF4cTGI6pLD5uMkKrSSG+RsZXVnK9yh6QIwhMP4FfDmdlOR25/kd5lL7bH5Wc
wS21bTo/SNIMSRaNyqe4ybjVWawB32BX3J+Z3yGMog==
-----END CERTIFICATE-----
