Certificate:
    Data:
        Version: 3 (0x2)
        Serial Number: 4101 (0x1005)
        Signature Algorithm: sha256WithRSAEncryption
        Issuer: C=US, ST=CO, L=Denver, O=SigningCA_1, OU=CA_Intermediate_SigningCA_1, CN=Intermediate
        Validity
            Not Before: Dec 11 21:56:51 2024 GMT
            Not After : Dec 21 21:56:51 2025 GMT
        Subject: CN=IDENTITY_4, ST=CO, C=US
        Subject Public Key Info:
            Public Key Algorithm: rsaEncryption
                Public-Key: (2048 bit)
                Modulus:
                    00:b7:88:68:02:fc:31:de:a3:9d:ea:3f:67:0c:66:
                    30:17:fa:d9:49:0a:d1:0d:49:26:9a:f2:dd:bd:0b:
                    ae:d0:f6:ad:0d:22:85:3d:14:12:9c:61:88:d4:9f:
                    67:18:0e:f9:c0:98:92:95:d8:dc:e0:42:b2:b6:67:
                    2b:f9:73:e2:7c:82:4c:a1:94:35:f1:85:e1:56:8e:
                    a7:eb:20:fa:de:eb:63:18:c8:99:8b:b5:84:73:7b:
                    76:d7:fd:ef:51:54:4b:76:06:d1:d8:a0:12:06:c2:
                    6d:b8:3e:c5:f0:7f:0e:f5:fc:94:f9:be:76:d0:e2:
                    c1:71:ab:0a:7f:57:c6:02:b1:1f:75:fb:60:60:7d:
                    bf:f4:a0:3b:ec:23:bc:c7:05:f7:57:6b:f8:57:57:
                    33:eb:f3:7f:2e:ae:03:b1:67:83:ae:ab:5c:a5:70:
                    6a:72:7f:94:19:c6:85:a8:0b:ce:e0:58:3d:c8:2c:
                    d9:c3:c3:ed:6d:2c:14:98:8c:10:b5:51:dc:0d:74:
                    7d:e6:50:a6:d6:ab:15:d7:da:07:64:aa:03:9e:a0:
                    b9:97:4a:6d:00:9a:bc:e1:16:b8:f5:21:b5:7a:d1:
                    11:e9:b7:5b:c7:bd:6a:a2:24:b2:78:84:e4:ee:b6:
                    49:3c:f1:50:b1:bc:f3:f0:8e:f7:6e:6a:19:13:71:
                    9f:15
                Exponent: 65537 (0x10001)
        X509v3 extensions:
            X509v3 Subject Key Identifier: 
                6F:3F:DB:CB:18:23:B7:24:6B:CC:29:B5:AF:5E:57:B0:B7:1D:4B:11
            X509v3 Authority Key Identifier: 
                38:18:E1:6F:1D:88:53:5F:1D:BC:43:5B:EF:50:BF:23:F9:11:99:1F
    Signature Algorithm: sha256WithRSAEncryption
    Signature Value:
        4c:e3:db:2b:a7:2f:1d:43:5a:65:38:89:e6:dd:56:8b:f2:52:
        ad:c8:fb:dd:2e:81:c1:44:ac:e3:c4:83:27:4e:52:f0:99:0d:
        43:9e:60:b0:3f:da:af:0a:ba:0a:4b:52:2e:90:4d:16:23:ba:
        a1:92:89:f3:6c:28:9d:41:01:8f:51:ad:f8:cb:10:11:b2:eb:
        ea:8b:cc:c8:79:93:36:96:58:17:29:e4:fb:bb:9c:0a:74:8c:
        48:58:5a:bc:37:db:01:9e:0a:44:b7:e7:d5:69:f5:2b:ed:6a:
        98:4f:c8:6d:2e:f7:eb:01:32:ac:8b:00:1b:00:7b:8c:28:10:
        10:10:ca:de:3f:ee:c7:2e:7b:af:26:0b:e7:07:0a:f7:76:8b:
        48:0d:fb:8d:25:f6:c9:14:3a:ce:b7:da:ce:bd:e0:91:8d:26:
        14:5f:65:7f:6c:f4:0a:80:49:0e:d5:77:20:19:f3:8e:1d:cd:
        5d:60:79:94:7b:7a:b6:4d:a2:92:ce:b4:8c:75:aa:12:a7:22:
        23:85:6e:26:69:63:a6:53:ac:02:7c:1f:5c:d9:61:5e:f6:a9:
        f8:54:d8:b0:2f:cc:5f:3a:8f:02:c5:b8:48:7c:1e:64:38:ac:
        16:02:40:b6:ac:fa:99:62:90:05:db:f8:07:8f:a2:26:3e:24:
        cb:49:00:8f:3d:fa:ef:bf:74:d8:9a:de:85:21:09:93:f4:7d:
        62:8c:7f:ab:c9:6b:0e:a8:89:5c:93:d3:81:81:16:a6:4c:a6:
        14:ee:0c:69:37:55:9d:55:47:a6:e6:75:ab:29:97:b8:4d:82:
        5a:92:fa:95:25:89:be:f1:0c:79:64:25:db:63:f7:32:8e:4c:
        2f:ed:20:66:5d:97:42:81:d6:f8:91:b8:2e:f8:38:b1:ff:30:
        99:76:2a:66:82:9f:71:87:4f:e9:99:b6:01:8a:1c:79:97:d4:
        52:18:01:4e:b0:9c:a1:e5:c9:aa:14:eb:65:d4:1f:15:03:36:
        97:93:8d:eb:f3:78:00:87:d1:c9:89:cc:1e:d5:98:3f:d9:66:
        1e:98:6f:b8:e6:ea:09:8f:6f:c2:8d:4d:b8:36:66:24:ac:7e:
        fb:71:9a:d5:45:bd:52:97:b2:b4:c9:d8:60:0d:ab:f8:57:07:
        c1:69:da:f3:06:75:9a:49:a6:c7:f7:1a:3a:06:4e:24:50:8b:
        e4:a9:01:a1:7c:8b:d3:97:9f:57:70:65:47:90:63:0c:4e:27:
        26:9b:de:6a:ac:3b:11:50:f3:df:d6:12:6c:4f:33:0a:4c:bb:
        b6:a1:b0:b6:2b:fb:08:87:fc:9e:a0:9c:ba:60:47:4c:21:1b:
        ca:94:8d:c0:08:5f:c2:f8
-----BEGIN CERTIFICATE-----
MIIEazCCAlOgAwIBAgICEAUwDQYJKoZIhvcNAQELBQAwfjELMAkGA1UEBhMCVVMx
CzAJBgNVBAgMAkNPMQ8wDQYDVQQHDAZEZW52ZXIxFDASBgNVBAoMC1NpZ25pbmdD
QV8xMSQwIgYDVQQLDBtDQV9JbnRlcm1lZGlhdGVfU2lnbmluZ0NBXzExFTATBgNV
BAMMDEludGVybWVkaWF0ZTAeFw0yNDEyMTEyMTU2NTFaFw0yNTEyMjEyMTU2NTFa
MC8xEzARBgNVBAMMCklERU5USVRZXzQxCzAJBgNVBAgMAkNPMQswCQYDVQQGEwJV
UzCCASIwDQYJKoZIhvcNAQEBBQADggEPADCCAQoCggEBALeIaAL8Md6jneo/Zwxm
MBf62UkK0Q1JJpry3b0LrtD2rQ0ihT0UEpxhiNSfZxgO+cCYkpXY3OBCsrZnK/lz
4nyCTKGUNfGF4VaOp+sg+t7rYxjImYu1hHN7dtf971FUS3YG0digEgbCbbg+xfB/
DvX8lPm+dtDiwXGrCn9XxgKxH3X7YGB9v/SgO+wjvMcF91dr+FdXM+vzfy6uA7Fn
g66rXKVwanJ/lBnGhagLzuBYPcgs2cPD7W0sFJiMELVR3A10feZQptarFdfaB2Sq
A56guZdKbQCavOEWuPUhtXrREem3W8e9aqIksniE5O62STzxULG88/CO925qGRNx
nxUCAwEAAaNCMEAwHQYDVR0OBBYEFG8/28sYI7cka8wpta9eV7C3HUsRMB8GA1Ud
IwQYMBaAFDgY4W8diFNfHbxDW+9QvyP5EZkfMA0GCSqGSIb3DQEBCwUAA4ICAQBM
49srpy8dQ1plOInm3VaL8lKtyPvdLoHBRKzjxIMnTlLwmQ1DnmCwP9qvCroKS1Iu
kE0WI7qhkonzbCidQQGPUa34yxARsuvqi8zIeZM2llgXKeT7u5wKdIxIWFq8N9sB
ngpEt+fVafUr7WqYT8htLvfrATKsiwAbAHuMKBAQEMreP+7HLnuvJgvnBwr3dotI
DfuNJfbJFDrOt9rOveCRjSYUX2V/bPQKgEkO1XcgGfOOHc1dYHmUe3q2TaKSzrSM
daoSpyIjhW4maWOmU6wCfB9c2WFe9qn4VNiwL8xfOo8CxbhIfB5kOKwWAkC2rPqZ
YpAF2/gHj6ImPiTLSQCPPfrvv3TYmt6FIQmT9H1ijH+ryWsOqIlck9OBgRamTKYU
7gxpN1WdVUem5nWrKZe4TYJakvqVJYm+8Qx5ZCXbY/cyjkwv7SBmXZdCgdb4kbgu
+Dix/zCZdipmgp9xh0/pmbYBihx5l9RSGAFOsJyh5cmqFOtl1B8VAzaXk43r83gA
h9HJicwe1Zg/2WYemG+45uoJj2/CjU24NmYkrH77cZrVRb1Sl7K0ydhgDav4VwfB
adrzBnWaSabH9xo6Bk4kUIvkqQGhfIvTl59XcGVHkGMMTicmm95qrDsRUPPf1hJs
TzMKTLu2obC2K/sIh/yeoJy6YEdMIRvKlI3ACF/C+A==
-----END CERTIFICATE-----
