Certificate:
    Data:
        Version: 3 (0x2)
        Serial Number: 4100 (0x1004)
        Signature Algorithm: sha256WithRSAEncryption
        Issuer: C=US, ST=CO, L=Denver, O=SigningCA_1, OU=CA_Intermediate_SigningCA_1, CN=Intermediate
        Validity
            Not Before: Dec 11 21:56:50 2024 GMT
            Not After : Dec 21 21:56:50 2025 GMT
        Subject: CN=IDENTITY_3, ST=CO, C=US
        Subject Public Key Info:
            Public Key Algorithm: rsaEncryption
                Public-Key: (2048 bit)
                Modulus:
                    00:9a:61:4e:57:b4:67:1f:25:19:7a:b4:0e:3a:8a:
                    8c:a4:f4:aa:50:99:e7:af:b7:ed:cd:57:8e:e1:8a:
                    8c:30:cf:ea:70:f3:bd:f1:a2:1a:21:29:ec:c0:31:
                    ac:8d:0b:49:85:60:61:8c:51:2d:6f:33:0e:e0:7e:
                    f6:cb:89:7b:f5:29:e1:cc:7e:40:6d:88:a4:b5:78:
                    9d:25:4d:f4:7e:ff:a1:ef:47:c6:bc:a3:45:d4:a8:
                    ae:91:6e:30:36:55:58:b1:82:1a:6d:2b:fe:71:d9:
                    ea:72:5e:c4:8e:85:c9:6b:30:63:a9:59:63:54:74:
                    f3:26:08:81:b9:51:91:84:b8:e3:ef:19:fc:3d:a8:
                    ca:38:5d:00:46:ec:bf:4f:8e:f5:e7:ca:3a:18:07:
                    e7:4f:3c:45:43:91:19:d2:c7:bd:60:ad:aa:6d:da:
                    6a:55:04:83:f8:37:18:d8:34:bd:1d:d1:09:1b:ba:
                    5b:29:62:45:03:6f:ee:fc:1e:a9:55:e3:e7:63:09:
                    d1:bf:7e:96:2e:8a:ea:5b:2b:58:ae:a5:b1:c0:8d:
                    f3:b1:b6:3f:ca:04:17:4d:d2:7d:86:01:6d:06:14:
                    c1:bf:d1:bf:d4:f9:28:54:e4:82:77:6e:50:ef:34:
                    30:3c:46:b6:cd:a7:dc:cd:cf:b2:27:20:26:97:00:
                    4c:c7
                Exponent: 65537 (0x10001)
        X509v3 extensions:
            X509v3 Subject Key Identifier: 
                39:61:1B:10:73:60:34:56:F2:95:44:9F:A6:08:B7:C6:91:86:01:C6
            X509v3 Authority Key Identifier: 
                38:18:E1:6F:1D:88:53:5F:1D:BC:43:5B:EF:50:BF:23:F9:11:99:1F
    Signature Algorithm: sha256WithRSAEncryption
    Signature Value:
        99:a6:e5:6b:cd:96:c4:74:e3:ed:c1:3c:13:00:e1:2f:a9:fd:
        08:0c:75:5b:a0:b0:67:71:61:dd:85:d8:96:7c:73:62:0a:31:
        67:66:e7:9a:4d:28:9a:59:b9:da:90:d4:e9:c2:2d:5a:30:56:
        d2:9b:f0:42:a6:29:b1:be:3d:5b:84:6e:e5:1f:51:20:d8:fb:
        45:85:f4:a7:94:7f:47:a2:ba:e2:e5:68:f8:51:d2:41:fc:aa:
        ab:33:3d:cb:4c:b3:08:55:46:22:99:e5:df:80:54:cc:66:61:
        41:d3:48:20:84:ed:62:f0:42:94:f5:49:90:31:2a:09:cd:d3:
        9d:da:b5:85:d8:96:f6:f3:d0:46:57:c2:a6:dc:6e:be:76:b9:
        8f:75:ae:8f:84:cd:c2:cf:f7:e9:3f:12:42:d5:3c:f7:e4:5c:
        b3:f8:87:33:81:d4:fa:19:d0:af:e4:51:b5:69:a0:83:e4:17:
        26:57:ad:e5:e5:3f:02:7d:fa:0c:11:29:e7:28:59:e0:82:ef:
        38:ff:0a:c7:17:33:8b:51:97:33:7b:ce:65:7f:08:61:d5:c4:
        cb:b0:fb:5b:8f:db:dc:b9:e9:09:99:5c:ba:7d:d8:b7:06:e3:
        31:7a:b4:7b:f4:2c:12:e2:07:1e:6c:04:78:7d:e0:3e:1b:dc:
        12:a0:b5:3e:70:da:fa:d2:7f:07:19:9d:79:5f:4c:04:7f:45:
        31:18:97:0f:0e:86:c4:56:32:db:12:d2:cf:78:58:a9:00:bf:
        ba:ff:61:7d:d6:6e:06:9f:c7:a5:02:01:ec:cc:b9:2f:fb:2b:
        df:fb:b2:16:65:94:50:4d:f2:13:3a:99:4e:93:b5:c4:2a:9d:
        d4:b1:af:9b:0a:2f:1e:3a:c4:9c:4e:ca:98:fc:1f:32:d3:e1:
        81:b9:26:04:7d:41:32:ba:d5:f8:cf:ef:fa:79:0c:8e:11:39:
        a3:c0:49:06:f5:88:92:d1:8b:c3:3d:b5:bf:35:6b:1c:3b:5f:
        86:6d:87:6b:a4:ba:0d:fb:cd:f9:ad:cc:25:6d:18:74:8e:78:
        dc:00:cd:be:bb:68:d4:b6:df:e7:e7:39:47:b9:62:b0:0e:2d:
        da:14:53:99:5a:4b:09:82:40:69:54:3f:8b:4c:4e:2c:52:d3:
        c7:83:f5:16:1e:c9:85:5e:56:2c:83:ca:ca:c2:58:24:73:e1:
        e5:d8:d0:c8:3a:ca:4a:12:b3:88:f0:f3:47:5d:c7:68:6d:52:
        fc:9a:a0:b1:ab:df:d3:88:1d:b4:9b:ee:f4:27:e9:b9:37:7e:
        37:d6:ad:c6:6b:fe:de:30:c8:4c:90:40:d5:af:e2:7b:23:fd:
        66:9d:dd:59:a7:fe:e9:54
-----BEGIN CERTIFICATE-----
MIIEazCCAlOgAwIBAgICEAQwDQYJKoZIhvcNAQELBQAwfjELMAkGA1UEBhMCVVMx
CzAJBgNVBAgMAkNPMQ8wDQYDVQQHDAZEZW52ZXIxFDASBgNVBAoMC1NpZ25pbmdD
QV8xMSQwIgYDVQQLDBtDQV9JbnRlcm1lZGlhdGVfU2lnbmluZ0NBXzExFTATBgNV
BAMMDEludGVybWVkaWF0ZTAeFw0yNDEyMTEyMTU2NTBaFw0yNTEyMjEyMTU2NTBa
MC8xEzARBgNVBAMMCklERU5USVRZXzMxCzAJBgNVBAgMAkNPMQswCQYDVQQGEwJV
UzCCASIwDQYJKoZIhvcNAQEBBQADggEPADCCAQoCggEBAJphTle0Zx8lGXq0DjqK
jKT0qlCZ56+37c1XjuGKjDDP6nDzvfGiGiEp7MAxrI0LSYVgYYxRLW8zDuB+9suJ
e/Up4cx+QG2IpLV4nSVN9H7/oe9HxryjRdSorpFuMDZVWLGCGm0r/nHZ6nJexI6F
yWswY6lZY1R08yYIgblRkYS44+8Z/D2oyjhdAEbsv0+O9efKOhgH5088RUORGdLH
vWCtqm3aalUEg/g3GNg0vR3RCRu6WyliRQNv7vweqVXj52MJ0b9+li6K6lsrWK6l
scCN87G2P8oEF03SfYYBbQYUwb/Rv9T5KFTkgnduUO80MDxGts2n3M3PsicgJpcA
TMcCAwEAAaNCMEAwHQYDVR0OBBYEFDlhGxBzYDRW8pVEn6YIt8aRhgHGMB8GA1Ud
IwQYMBaAFDgY4W8diFNfHbxDW+9QvyP5EZkfMA0GCSqGSIb3DQEBCwUAA4ICAQCZ
puVrzZbEdOPtwTwTAOEvqf0IDHVboLBncWHdhdiWfHNiCjFnZueaTSiaWbnakNTp
wi1aMFbSm/BCpimxvj1bhG7lH1Eg2PtFhfSnlH9Horri5Wj4UdJB/KqrMz3LTLMI
VUYimeXfgFTMZmFB00gghO1i8EKU9UmQMSoJzdOd2rWF2Jb289BGV8Km3G6+drmP
da6PhM3Cz/fpPxJC1Tz35Fyz+IczgdT6GdCv5FG1aaCD5BcmV63l5T8CffoMESnn
KFnggu84/wrHFzOLUZcze85lfwhh1cTLsPtbj9vcuekJmVy6fdi3BuMxerR79CwS
4gcebAR4feA+G9wSoLU+cNr60n8HGZ15X0wEf0UxGJcPDobEVjLbEtLPeFipAL+6
/2F91m4Gn8elAgHszLkv+yvf+7IWZZRQTfITOplOk7XEKp3Usa+bCi8eOsScTsqY
/B8y0+GBuSYEfUEyutX4z+/6eQyOETmjwEkG9YiS0YvDPbW/NWscO1+GbYdrpLoN
+835rcwlbRh0jnjcAM2+u2jUtt/n5zlHuWKwDi3aFFOZWksJgkBpVD+LTE4sUtPH
g/UWHsmFXlYsg8rKwlgkc+Hl2NDIOspKErOI8PNHXcdobVL8mqCxq9/TiB20m+70
J+m5N3431q3Ga/7eMMhMkEDVr+J7I/1mnd1Zp/7pVA==
-----END CERTIFICATE-----
