Certificate:
    Data:
        Version: 3 (0x2)
        Serial Number: 4102 (0x1006)
        Signature Algorithm: sha256WithRSAEncryption
        Issuer: C=US, ST=CO, L=Denver, O=SigningCA_1, OU=CA_Intermediate_SigningCA_1, CN=Intermediate
        Validity
            Not Before: Dec 11 21:56:52 2024 GMT
            Not After : Dec 21 21:56:52 2025 GMT
        Subject: CN=IDENTITY_5, ST=CO, C=US
        Subject Public Key Info:
            Public Key Algorithm: rsaEncryption
                Public-Key: (2048 bit)
                Modulus:
                    00:a0:57:44:ad:59:9d:80:a7:1c:6c:6d:06:2b:c1:
                    8d:3d:de:d2:8b:c6:22:a5:f3:f8:66:20:4d:51:ce:
                    18:a0:a9:cf:0d:e1:3b:30:68:82:75:06:a9:30:4f:
                    87:44:8d:3a:2e:eb:b7:c9:5f:1f:a4:72:67:e2:24:
                    51:e2:a2:f9:a0:e5:31:f4:9e:7a:2f:bd:f7:b6:fc:
                    ea:d8:4a:38:f7:b9:1b:4b:93:4b:21:15:45:0c:43:
                    9c:3a:56:58:6b:0a:19:bf:f7:16:7d:a5:f9:0c:0a:
                    25:5f:b6:3e:df:50:75:15:98:4f:c6:bf:00:65:b1:
                    74:c1:92:b4:3f:86:3e:39:95:0f:a7:06:24:28:d9:
                    d6:3b:08:3e:c4:5b:b1:91:8a:d5:b0:4b:8a:13:86:
                    9f:da:e3:04:fb:e7:73:b2:ba:b9:82:93:50:23:10:
                    ae:8e:5d:b2:2b:c5:ec:b6:13:ad:cd:5a:0f:bf:32:
                    0e:06:a4:9d:c8:e1:7e:66:76:81:5e:e6:c7:c8:05:
                    2f:4d:64:96:1e:89:fd:6c:ec:7f:9a:4a:c7:c6:80:
                    e3:a2:8b:c8:0d:b3:c6:16:3b:28:a6:40:d5:89:1e:
                    be:4b:12:f3:5d:ba:19:04:62:58:01:05:1e:37:8f:
                    f7:78:25:0d:91:6d:f1:2d:15:c5:61:df:82:75:59:
                    09:33
                Exponent: 65537 (0x10001)
        X509v3 extensions:
            X509v3 Subject Key Identifier: 
                A0:AE:F6:62:D7:79:56:08:F0:55:75:DF:75:17:A2:ED:20:AA:9C:ED
            X509v3 Authority Key Identifier: 
                38:18:E1:6F:1D:88:53:5F:1D:BC:43:5B:EF:50:BF:23:F9:11:99:1F
    Signature Algorithm: sha256WithRSAEncryption
    Signature Value:
        b0:ec:ff:ef:0f:9c:6a:7b:8b:cf:c3:c8:3d:7e:2b:c7:3e:43:
        c4:65:96:81:fe:54:42:ee:3d:74:c1:c0:42:33:74:e2:ee:25:
        ef:b9:a3:a3:3a:9c:a8:80:71:a4:17:ec:88:5c:ef:c3:99:ed:
        14:53:e3:e9:27:73:de:28:fb:e0:7d:16:30:9c:44:61:65:e5:
        81:03:8e:55:5f:9c:9f:b6:24:46:8e:d3:b3:f5:07:09:3a:d3:
        fd:ba:ad:45:96:0f:1a:1c:02:b4:55:76:51:59:97:f7:7b:9f:
        ac:1b:c2:01:ef:e9:92:cc:d8:fa:79:2e:86:7a:13:84:07:ee:
        1c:b5:a6:5a:40:73:5f:f2:8a:50:9c:12:27:86:4e:94:f7:8b:
        c7:e0:16:bf:20:85:a4:cd:5c:b4:c4:46:2b:12:f8:db:cf:e1:
        43:18:ce:a6:71:b7:b5:71:11:43:97:ad:ec:10:02:94:f5:e4:
        2a:98:e8:99:f4:b7:3d:ce:e0:9e:da:3e:97:2d:30:37:ef:32:
        9b:99:6d:1a:fd:54:ba:c8:ec:42:f7:e6:e2:0a:3b:65:cc:4c:
        e1:04:22:f3:83:4d:6e:2e:b1:16:78:32:d5:65:4a:9a:f9:75:
        55:ca:c0:0a:df:a4:de:af:44:81:eb:8d:d3:62:7b:20:53:28:
        75:bf:ee:df:95:cf:c1:e4:45:09:07:2c:25:7c:ef:f5:67:54:
        c2:3c:9d:3e:39:eb:37:6e:b5:2b:3a:56:f3:9a:87:5c:5f:a6:
        0c:46:59:b8:57:59:6b:79:b0:ef:97:8c:d2:8e:6c:d1:51:66:
        bd:d5:d4:07:c1:52:5d:55:ae:49:6b:28:d3:b9:b7:fa:e8:4d:
        09:e0:1d:29:6b:3b:0c:e8:b9:4a:60:ad:a7:fc:43:8d:9f:6f:
        f9:d8:d6:77:13:97:f1:e4:2d:b4:00:2c:54:c3:a5:6e:7f:3b:
        3e:65:a1:8c:6e:cc:c8:8f:3c:76:f0:28:07:a9:93:17:a4:47:
        c6:34:88:9a:1d:ce:bc:13:89:7f:42:b9:10:4d:79:b8:db:50:
        d3:6a:67:29:af:92:3a:3b:79:4c:12:4c:1e:f9:3b:0a:a8:85:
        96:ac:a0:50:24:01:f8:ac:22:69:6d:45:4c:b2:09:6c:e4:7e:
        3c:86:79:ad:3f:f7:df:5b:0b:97:36:38:b3:56:fc:c9:05:4d:
        19:0a:a8:de:d8:5f:bd:81:e0:a9:63:4e:69:6c:e3:9b:c2:05:
        40:3f:b0:f4:f8:e6:9a:95:51:82:7c:8b:e2:b0:ad:8a:c2:f4:
        e3:38:2c:bd:ff:79:1e:82:55:33:d1:bf:92:4d:d9:f4:7a:3d:
        50:f9:5e:92:12:81:5a:80
-----BEGIN CERTIFICATE-----
MIIEazCCAlOgAwIBAgICEAYwDQYJKoZIhvcNAQELBQAwfjELMAkGA1UEBhMCVVMx
CzAJBgNVBAgMAkNPMQ8wDQYDVQQHDAZEZW52ZXIxFDASBgNVBAoMC1NpZ25pbmdD
QV8xMSQwIgYDVQQLDBtDQV9JbnRlcm1lZGlhdGVfU2lnbmluZ0NBXzExFTATBgNV
BAMMDEludGVybWVkaWF0ZTAeFw0yNDEyMTEyMTU2NTJaFw0yNTEyMjEyMTU2NTJa
MC8xEzARBgNVBAMMCklERU5USVRZXzUxCzAJBgNVBAgMAkNPMQswCQYDVQQGEwJV
UzCCASIwDQYJKoZIhvcNAQEBBQADggEPADCCAQoCggEBAKBXRK1ZnYCnHGxtBivB
jT3e0ovGIqXz+GYgTVHOGKCpzw3hOzBognUGqTBPh0SNOi7rt8lfH6RyZ+IkUeKi
+aDlMfSeei+997b86thKOPe5G0uTSyEVRQxDnDpWWGsKGb/3Fn2l+QwKJV+2Pt9Q
dRWYT8a/AGWxdMGStD+GPjmVD6cGJCjZ1jsIPsRbsZGK1bBLihOGn9rjBPvnc7K6
uYKTUCMQro5dsivF7LYTrc1aD78yDgakncjhfmZ2gV7mx8gFL01klh6J/Wzsf5pK
x8aA46KLyA2zxhY7KKZA1YkevksS8126GQRiWAEFHjeP93glDZFt8S0VxWHfgnVZ
CTMCAwEAAaNCMEAwHQYDVR0OBBYEFKCu9mLXeVYI8FV133UXou0gqpztMB8GA1Ud
IwQYMBaAFDgY4W8diFNfHbxDW+9QvyP5EZkfMA0GCSqGSIb3DQEBCwUAA4ICAQCw
7P/vD5xqe4vPw8g9fivHPkPEZZaB/lRC7j10wcBCM3Ti7iXvuaOjOpyogHGkF+yI
XO/Dme0UU+PpJ3PeKPvgfRYwnERhZeWBA45VX5yftiRGjtOz9QcJOtP9uq1Flg8a
HAK0VXZRWZf3e5+sG8IB7+mSzNj6eS6GehOEB+4ctaZaQHNf8opQnBInhk6U94vH
4Ba/IIWkzVy0xEYrEvjbz+FDGM6mcbe1cRFDl63sEAKU9eQqmOiZ9Lc9zuCe2j6X
LTA37zKbmW0a/VS6yOxC9+biCjtlzEzhBCLzg01uLrEWeDLVZUqa+XVVysAK36Te
r0SB643TYnsgUyh1v+7flc/B5EUJBywlfO/1Z1TCPJ0+Oes3brUrOlbzmodcX6YM
Rlm4V1lrebDvl4zSjmzRUWa91dQHwVJdVa5JayjTubf66E0J4B0pazsM6LlKYK2n
/EONn2/52NZ3E5fx5C20ACxUw6Vufzs+ZaGMbszIjzx28CgHqZMXpEfGNIiaHc68
E4l/QrkQTXm421DTamcpr5I6O3lMEkwe+TsKqIWWrKBQJAH4rCJpbUVMsgls5H48
hnmtP/ffWwuXNjizVvzJBU0ZCqje2F+9geCpY05pbOObwgVAP7D0+OaalVGCfIvi
sK2KwvTjOCy9/3keglUz0b+STdn0ej1Q+V6SEoFagA==
-----END CERTIFICATE-----
