Certificate:
    Data:
        Version: 3 (0x2)
        Serial Number: 4098 (0x1002)
        Signature Algorithm: sha256WithRSAEncryption
        Issuer: C=US, ST=CO, L=Denver, O=SigningCA_1, OU=CA_Intermediate_SigningCA_1, CN=Intermediate
        Validity
            Not Before: Dec 11 20:55:51 2024 GMT
            Not After : Dec 21 20:55:51 2025 GMT
        Subject: CN=IDENTITY_1, ST=CO, C=US
        Subject Public Key Info:
            Public Key Algorithm: rsaEncryption
                Public-Key: (2048 bit)
                Modulus:
                    00:e9:ac:cc:c3:50:01:c0:23:6a:fd:d4:e4:33:b4:
                    b3:18:13:cb:ab:60:92:08:94:ed:61:c4:fb:10:91:
                    05:52:8c:0a:91:dc:4c:55:57:29:b7:aa:07:11:b2:
                    36:5d:2d:c8:60:d5:d4:80:b0:9c:d0:b2:ec:6a:f7:
                    ff:63:e1:6e:7d:ec:87:6d:df:b4:d9:8c:8b:50:0f:
                    73:58:55:30:51:a7:da:86:a2:14:46:df:ad:3c:81:
                    ee:d6:2d:09:c9:30:84:68:9b:be:51:87:76:10:37:
                    9e:7a:52:29:cc:38:19:82:a7:fa:96:fe:0b:04:f6:
                    b1:11:42:6f:db:b6:28:5d:92:9b:dd:44:6a:e4:e6:
                    90:0a:40:ab:ac:06:3d:96:5f:f3:f0:d8:de:6e:a6:
                    06:0b:74:6a:f2:2e:ee:ed:df:b5:f3:cd:45:6f:49:
                    ec:d9:56:45:c8:3b:ef:4a:a0:4c:da:fb:57:8c:95:
                    02:7b:b2:33:37:59:2b:50:e6:a8:6a:42:6a:0d:de:
                    2e:62:b7:e9:30:7c:48:9e:97:d9:85:72:e4:e8:99:
                    30:3b:dd:57:06:5d:78:e6:5d:24:2f:af:ed:d3:2f:
                    65:90:05:e0:e2:f1:b3:54:32:37:4d:35:6b:03:33:
                    69:8b:2e:81:94:4a:dd:97:73:2e:3b:bd:ab:f4:84:
                    39:9b
                Exponent: 65537 (0x10001)
        X509v3 extensions:
            X509v3 Subject Key Identifier: 
                E8:54:1A:58:EF:45:BE:00:CA:0A:54:C6:C8:C4:94:AB:29:55:14:8D
            X509v3 Authority Key Identifier: 
                38:18:E1:6F:1D:88:53:5F:1D:BC:43:5B:EF:50:BF:23:F9:11:99:1F
    Signature Algorithm: sha256WithRSAEncryption
    Signature Value:
        5e:87:86:86:bf:b4:e0:68:12:2f:80:f2:6f:45:13:36:7e:20:
        6b:67:5d:1e:03:f5:19:ee:dc:ff:e2:85:5a:34:81:cb:65:b8:
        41:a1:e7:72:29:b4:09:81:4e:46:15:ed:e2:1c:0d:c5:af:8e:
        9c:f7:87:49:35:c2:87:8b:d7:ff:a6:2e:06:cd:b0:ae:a7:7b:
        54:f0:a7:35:c4:2e:82:8d:53:0a:b6:c4:37:a3:f1:cc:31:8c:
        bf:62:91:74:48:c4:95:d7:cf:39:5f:25:98:40:19:b4:f1:a5:
        13:0e:95:6b:f3:91:29:82:cc:cc:24:6e:77:aa:a8:4a:ce:14:
        9a:2d:8a:34:20:9b:29:2b:ae:ca:e0:5b:fc:64:cd:2c:8a:9f:
        54:25:b4:6a:d3:af:aa:f9:42:31:bb:0c:8e:71:5e:3e:16:4d:
        21:84:92:58:b7:02:59:ef:74:6a:da:10:de:d8:e2:63:7f:6d:
        0b:1c:e3:6b:aa:55:8d:d9:b2:85:79:97:fe:8a:ef:12:d9:c2:
        da:9e:29:da:1a:d0:c4:2c:59:f7:43:13:e8:e5:1b:7f:73:7e:
        ef:54:d7:76:e3:9e:dc:37:62:7d:19:2f:c1:a5:0e:8d:82:ca:
        51:7f:cf:10:8f:57:38:45:d6:66:2d:24:57:cd:d1:13:4d:45:
        ad:39:95:47:c3:be:32:1e:8f:91:37:5e:9f:b9:5e:70:17:d5:
        9d:fc:67:46:6f:0a:8a:89:ff:0f:5c:13:c3:46:ce:2d:66:ae:
        90:79:c1:94:80:2b:db:63:00:5c:89:8e:d9:0d:ca:19:14:ce:
        5a:b9:17:0a:f7:9c:de:13:5f:2f:f3:c5:c4:85:ef:55:31:54:
        25:22:d2:19:3a:0d:71:49:3a:29:bc:b2:72:d2:4f:9b:a0:09:
        d1:29:18:a7:a6:7e:1e:58:03:c7:0b:8f:5b:17:63:e6:15:7b:
        80:e9:49:06:41:6c:0b:fd:69:70:55:5c:d5:40:10:55:d6:d8:
        1e:6b:11:72:f5:d8:e2:f1:19:b7:31:6b:12:4f:76:c0:74:59:
        a1:cd:0e:79:99:06:bf:8b:1f:7c:16:42:ce:62:f0:07:5f:50:
        00:90:77:71:41:b7:5b:67:d2:09:18:77:c9:1d:87:38:84:97:
        31:f2:3a:ba:38:bc:4b:f5:62:69:b5:fc:1f:a3:4e:e0:ed:ad:
        25:67:66:06:ee:d8:e1:ee:8d:a7:a4:3c:86:3f:f3:fc:86:41:
        92:1f:9a:93:dd:49:7d:c4:c3:15:8a:55:6c:90:14:08:42:0e:
        4c:31:b3:d8:21:a4:1b:35:37:62:10:87:c0:46:bc:1e:a0:19:
        f6:bd:58:a0:06:e3:8c:0b
-----BEGIN CERTIFICATE-----
MIIEazCCAlOgAwIBAgICEAIwDQYJKoZIhvcNAQELBQAwfjELMAkGA1UEBhMCVVMx
CzAJBgNVBAgMAkNPMQ8wDQYDVQQHDAZEZW52ZXIxFDASBgNVBAoMC1NpZ25pbmdD
QV8xMSQwIgYDVQQLDBtDQV9JbnRlcm1lZGlhdGVfU2lnbmluZ0NBXzExFTATBgNV
BAMMDEludGVybWVkaWF0ZTAeFw0yNDEyMTEyMDU1NTFaFw0yNTEyMjEyMDU1NTFa
MC8xEzARBgNVBAMMCklERU5USVRZXzExCzAJBgNVBAgMAkNPMQswCQYDVQQGEwJV
UzCCASIwDQYJKoZIhvcNAQEBBQADggEPADCCAQoCggEBAOmszMNQAcAjav3U5DO0
sxgTy6tgkgiU7WHE+xCRBVKMCpHcTFVXKbeqBxGyNl0tyGDV1ICwnNCy7Gr3/2Ph
bn3sh23ftNmMi1APc1hVMFGn2oaiFEbfrTyB7tYtCckwhGibvlGHdhA3nnpSKcw4
GYKn+pb+CwT2sRFCb9u2KF2Sm91EauTmkApAq6wGPZZf8/DY3m6mBgt0avIu7u3f
tfPNRW9J7NlWRcg770qgTNr7V4yVAnuyMzdZK1DmqGpCag3eLmK36TB8SJ6X2YVy
5OiZMDvdVwZdeOZdJC+v7dMvZZAF4OLxs1QyN001awMzaYsugZRK3ZdzLju9q/SE
OZsCAwEAAaNCMEAwHQYDVR0OBBYEFOhUGljvRb4AygpUxsjElKspVRSNMB8GA1Ud
IwQYMBaAFDgY4W8diFNfHbxDW+9QvyP5EZkfMA0GCSqGSIb3DQEBCwUAA4ICAQBe
h4aGv7TgaBIvgPJvRRM2fiBrZ10eA/UZ7tz/4oVaNIHLZbhBoedyKbQJgU5GFe3i
HA3Fr46c94dJNcKHi9f/pi4GzbCup3tU8Kc1xC6CjVMKtsQ3o/HMMYy/YpF0SMSV
1885XyWYQBm08aUTDpVr85EpgszMJG53qqhKzhSaLYo0IJspK67K4Fv8ZM0sip9U
JbRq06+q+UIxuwyOcV4+Fk0hhJJYtwJZ73Rq2hDe2OJjf20LHONrqlWN2bKFeZf+
iu8S2cLaninaGtDELFn3QxPo5Rt/c37vVNd2457cN2J9GS/BpQ6NgspRf88Qj1c4
RdZmLSRXzdETTUWtOZVHw74yHo+RN16fuV5wF9Wd/GdGbwqKif8PXBPDRs4tZq6Q
ecGUgCvbYwBciY7ZDcoZFM5auRcK95zeE18v88XEhe9VMVQlItIZOg1xSTopvLJy
0k+boAnRKRinpn4eWAPHC49bF2PmFXuA6UkGQWwL/WlwVVzVQBBV1tgeaxFy9dji
8Rm3MWsST3bAdFmhzQ55mQa/ix98FkLOYvAHX1AAkHdxQbdbZ9IJGHfJHYc4hJcx
8jq6OLxL9WJptfwfo07g7a0lZ2YG7tjh7o2npDyGP/P8hkGSH5qT3Ul9xMMVilVs
kBQIQg5MMbPYIaQbNTdiEIfARrweoBn2vVigBuOMCw==
-----END CERTIFICATE-----
